
firmware.elf:     file format elf32-littleriscv


Disassembly of section .memory:

00000000 <start>:
   0:	00000093          	li	ra,0
   4:	00000113          	li	sp,0
   8:	00000193          	li	gp,0
   c:	00000213          	li	tp,0
  10:	00000293          	li	t0,0
  14:	00000313          	li	t1,0
  18:	00000393          	li	t2,0
  1c:	00000413          	li	s0,0
  20:	00000493          	li	s1,0
  24:	00000513          	li	a0,0
  28:	00000593          	li	a1,0
  2c:	00000613          	li	a2,0
  30:	00000693          	li	a3,0
  34:	00000713          	li	a4,0
  38:	00000793          	li	a5,0
  3c:	00000813          	li	a6,0
  40:	00000893          	li	a7,0
  44:	00000913          	li	s2,0
  48:	00000993          	li	s3,0
  4c:	00000a13          	li	s4,0
  50:	00000a93          	li	s5,0
  54:	00000b13          	li	s6,0
  58:	00000b93          	li	s7,0
  5c:	00000c13          	li	s8,0
  60:	00000c93          	li	s9,0
  64:	00000d13          	li	s10,0
  68:	00000d93          	li	s11,0
  6c:	00000e13          	li	t3,0
  70:	00000e93          	li	t4,0
  74:	00000f13          	li	t5,0
  78:	00000f93          	li	t6,0
  7c:	138000ef          	jal	ra,1b4 <main>
  80:	00100073          	ebreak

00000084 <print_chr>:
  84:	800007b7          	lui	a5,0x80000
  88:	00a7a023          	sw	a0,0(a5) # 80000000 <end+0x7ffffd14>
  8c:	00008067          	ret

00000090 <print_str>:
  90:	80000737          	lui	a4,0x80000
  94:	00054783          	lbu	a5,0(a0)
  98:	00079463          	bnez	a5,a0 <print_str+0x10>
  9c:	00008067          	ret
  a0:	00150513          	addi	a0,a0,1
  a4:	00f72023          	sw	a5,0(a4) # 80000000 <end+0x7ffffd14>
  a8:	fedff06f          	j	94 <print_str+0x4>

000000ac <print_dec>:
  ac:	ff010113          	addi	sp,sp,-16
  b0:	00410793          	addi	a5,sp,4
  b4:	00078693          	mv	a3,a5
  b8:	00a00713          	li	a4,10
  bc:	02051463          	bnez	a0,e4 <print_dec+0x38>
  c0:	02d78263          	beq	a5,a3,e4 <print_dec+0x38>
  c4:	80000637          	lui	a2,0x80000
  c8:	fff7c703          	lbu	a4,-1(a5)
  cc:	fff78793          	addi	a5,a5,-1
  d0:	03070713          	addi	a4,a4,48
  d4:	00e62023          	sw	a4,0(a2) # 80000000 <end+0x7ffffd14>
  d8:	fed798e3          	bne	a5,a3,c8 <print_dec+0x1c>
  dc:	01010113          	addi	sp,sp,16
  e0:	00008067          	ret
  e4:	02e57633          	remu	a2,a0,a4
  e8:	00178793          	addi	a5,a5,1
  ec:	02e55533          	divu	a0,a0,a4
  f0:	fec78fa3          	sb	a2,-1(a5)
  f4:	fc9ff06f          	j	bc <print_dec+0x10>

000000f8 <print_hex>:
  f8:	fff58593          	addi	a1,a1,-1
  fc:	00259593          	slli	a1,a1,0x2
 100:	13800713          	li	a4,312
 104:	800006b7          	lui	a3,0x80000
 108:	0005d463          	bgez	a1,110 <print_hex+0x18>
 10c:	00008067          	ret
 110:	00b557b3          	srl	a5,a0,a1
 114:	00f7f793          	andi	a5,a5,15
 118:	00f707b3          	add	a5,a4,a5
 11c:	0007c783          	lbu	a5,0(a5)
 120:	ffc58593          	addi	a1,a1,-4
 124:	00f6a023          	sw	a5,0(a3) # 80000000 <end+0x7ffffd14>
 128:	fe1ff06f          	j	108 <print_hex+0x10>

0000012c <avg>:
 12c:	00b50533          	add	a0,a0,a1
 130:	40155513          	srai	a0,a0,0x1
 134:	00008067          	ret
 138:	3130                	fld	fa2,96(a0)
 13a:	3332                	fld	ft6,296(sp)
 13c:	3534                	fld	fa3,104(a0)
 13e:	3736                	fld	fa4,360(sp)
 140:	3938                	fld	fa4,112(a0)
 142:	4241                	li	tp,16
 144:	46454443          	.4byte	0x46454443
 148:	4700                	lw	s0,8(a4)
 14a:	203a4343          	fmadd.s	ft6,fs4,ft3,ft4,rmm
 14e:	2928                	fld	fa0,80(a0)
 150:	3120                	fld	fs0,96(a0)
 152:	2e32                	fld	ft8,264(sp)
 154:	2e32                	fld	ft8,264(sp)
 156:	0030                	addi	a2,sp,8
 158:	2041                	jal	1d8 <main+0x24>
 15a:	0000                	unimp
 15c:	7200                	flw	fs0,32(a2)
 15e:	7369                	lui	t1,0xffffa
 160:	01007663          	bgeu	zero,a6,16c <avg+0x40>
 164:	0016                	c.slli	zero,0x5
 166:	0000                	unimp
 168:	1004                	addi	s1,sp,32
 16a:	7205                	lui	tp,0xfffe1
 16c:	3376                	fld	ft6,376(sp)
 16e:	6932                	flw	fs2,12(sp)
 170:	7032                	flw	ft0,44(sp)
 172:	5f30                	lw	a2,120(a4)
 174:	326d                	jal	fffffb1e <end+0xfffff832>
 176:	3070                	fld	fa2,224(s0)
 178:	4100                	lw	s0,0(a0)
 17a:	0020                	addi	s0,sp,8
 17c:	0000                	unimp
 17e:	6972                	flw	fs2,28(sp)
 180:	00766373          	csrrsi	t1,0x7,12
 184:	1601                	addi	a2,a2,-32
 186:	0000                	unimp
 188:	0400                	addi	s0,sp,512
 18a:	0510                	addi	a2,sp,640
 18c:	7672                	flw	fa2,60(sp)
 18e:	32693233          	.4byte	0x32693233
 192:	3070                	fld	fa2,224(s0)
 194:	6d5f 7032 0030      	.byte	0x5f, 0x6d, 0x32, 0x70, 0x30, 0x00
 19a:	0000                	unimp
 19c:	7661                	lui	a2,0xffff8
 19e:	78302867          	.4byte	0x78302867
 1a2:	0000                	unimp
 1a4:	202c                	fld	fa1,64(s0)
 1a6:	0000                	unimp
 1a8:	2029                	jal	1b2 <avg+0x86>
 1aa:	203d                	jal	1d8 <main+0x24>
 1ac:	7830                	flw	fa2,112(s0)
 1ae:	0000                	unimp
 1b0:	002e                	c.slli	zero,0xb
	...

000001b4 <main>:
 1b4:	fd010113          	addi	sp,sp,-48
 1b8:	02000793          	li	a5,32
 1bc:	00f12223          	sw	a5,4(sp)
 1c0:	01000793          	li	a5,16
 1c4:	00f12423          	sw	a5,8(sp)
 1c8:	00412503          	lw	a0,4(sp)
 1cc:	00812583          	lw	a1,8(sp)
 1d0:	02112623          	sw	ra,44(sp)
 1d4:	02812423          	sw	s0,40(sp)
 1d8:	02912223          	sw	s1,36(sp)
 1dc:	03212023          	sw	s2,32(sp)
 1e0:	01312e23          	sw	s3,28(sp)
 1e4:	f49ff0ef          	jal	ra,12c <avg>
 1e8:	00a12623          	sw	a0,12(sp)
 1ec:	19c00513          	li	a0,412
 1f0:	ea1ff0ef          	jal	ra,90 <print_str>
 1f4:	00412503          	lw	a0,4(sp)
 1f8:	00600593          	li	a1,6
 1fc:	efdff0ef          	jal	ra,f8 <print_hex>
 200:	1a400513          	li	a0,420
 204:	e8dff0ef          	jal	ra,90 <print_str>
 208:	00812503          	lw	a0,8(sp)
 20c:	00500593          	li	a1,5
 210:	ee9ff0ef          	jal	ra,f8 <print_hex>
 214:	1a800513          	li	a0,424
 218:	e79ff0ef          	jal	ra,90 <print_str>
 21c:	00c12503          	lw	a0,12(sp)
 220:	00500593          	li	a1,5
 224:	ed5ff0ef          	jal	ra,f8 <print_hex>
 228:	1b000513          	li	a0,432
 22c:	e65ff0ef          	jal	ra,90 <print_str>
 230:	00300793          	li	a5,3
 234:	00f12223          	sw	a5,4(sp)
 238:	00400793          	li	a5,4
 23c:	00f12423          	sw	a5,8(sp)
 240:	00412503          	lw	a0,4(sp)
 244:	00812583          	lw	a1,8(sp)
 248:	ee5ff0ef          	jal	ra,12c <avg>
 24c:	00a12623          	sw	a0,12(sp)
 250:	19c00513          	li	a0,412
 254:	e3dff0ef          	jal	ra,90 <print_str>
 258:	00412503          	lw	a0,4(sp)
 25c:	00400593          	li	a1,4
 260:	e99ff0ef          	jal	ra,f8 <print_hex>
 264:	1a400513          	li	a0,420
 268:	e29ff0ef          	jal	ra,90 <print_str>
 26c:	00812503          	lw	a0,8(sp)
 270:	00400593          	li	a1,4
 274:	e85ff0ef          	jal	ra,f8 <print_hex>
 278:	1a800513          	li	a0,424
 27c:	e15ff0ef          	jal	ra,90 <print_str>
 280:	00c12503          	lw	a0,12(sp)
 284:	00400593          	li	a1,4
 288:	e71ff0ef          	jal	ra,f8 <print_hex>
 28c:	1b000513          	li	a0,432
 290:	02812403          	lw	s0,40(sp)
 294:	02c12083          	lw	ra,44(sp)
 298:	02412483          	lw	s1,36(sp)
 29c:	02012903          	lw	s2,32(sp)
 2a0:	01c12983          	lw	s3,28(sp)
 2a4:	03010113          	addi	sp,sp,48
 2a8:	de9ff06f          	j	90 <print_str>
 2ac:	2041                	jal	32c <end+0x40>
 2ae:	0000                	unimp
 2b0:	7200                	flw	fs0,32(a2)
 2b2:	7369                	lui	t1,0xffffa
 2b4:	01007663          	bgeu	zero,a6,2c0 <main+0x10c>
 2b8:	0016                	c.slli	zero,0x5
 2ba:	0000                	unimp
 2bc:	1004                	addi	s1,sp,32
 2be:	7205                	lui	tp,0xfffe1
 2c0:	3376                	fld	ft6,376(sp)
 2c2:	6932                	flw	fs2,12(sp)
 2c4:	7032                	flw	ft0,44(sp)
 2c6:	5f30                	lw	a2,120(a4)
 2c8:	326d                	jal	fffffc72 <end+0xfffff986>
 2ca:	3070                	fld	fa2,224(s0)
 2cc:	4100                	lw	s0,0(a0)
 2ce:	001e                	c.slli	zero,0x7
 2d0:	0000                	unimp
 2d2:	6972                	flw	fs2,28(sp)
 2d4:	00766373          	csrrsi	t1,0x7,12
 2d8:	1401                	addi	s0,s0,-32
 2da:	0000                	unimp
 2dc:	0500                	addi	s0,sp,640
 2de:	7672                	flw	fa2,60(sp)
 2e0:	32693233          	.4byte	0x32693233
 2e4:	3070                	fld	fa2,224(s0)
 2e6:	6d5f 7032 0030      	.byte	0x5f, 0x6d, 0x32, 0x70, 0x30, 0x00
