
firmware.elf:     file format elf32-littleriscv


Disassembly of section .memory:

00000000 <start>:
   0:	00000093          	li	ra,0
   4:	00000113          	li	sp,0
   8:	00000193          	li	gp,0
   c:	00000213          	li	tp,0
  10:	00000293          	li	t0,0
  14:	00000313          	li	t1,0
  18:	00000393          	li	t2,0
  1c:	00000413          	li	s0,0
  20:	00000493          	li	s1,0
  24:	00000513          	li	a0,0
  28:	00000593          	li	a1,0
  2c:	00000613          	li	a2,0
  30:	00000693          	li	a3,0
  34:	00000713          	li	a4,0
  38:	00000793          	li	a5,0
  3c:	00000813          	li	a6,0
  40:	00000893          	li	a7,0
  44:	00000913          	li	s2,0
  48:	00000993          	li	s3,0
  4c:	00000a13          	li	s4,0
  50:	00000a93          	li	s5,0
  54:	00000b13          	li	s6,0
  58:	00000b93          	li	s7,0
  5c:	00000c13          	li	s8,0
  60:	00000c93          	li	s9,0
  64:	00000d13          	li	s10,0
  68:	00000d93          	li	s11,0
  6c:	00000e13          	li	t3,0
  70:	00000e93          	li	t4,0
  74:	00000f13          	li	t5,0
  78:	00000f93          	li	t6,0
  7c:	00020137          	lui	sp,0x20
  80:	00010113          	mv	sp,sp
  84:	12d000ef          	jal	ra,9b0 <main>
  88:	00100073          	ebreak

0000008c <pc>:
  8c:	000017b7          	lui	a5,0x1
  90:	93078793          	addi	a5,a5,-1744 # 930 <round_constants>
  94:	00c787b3          	add	a5,a5,a2
  98:	40b787b3          	sub	a5,a5,a1
  9c:	01452703          	lw	a4,20(a0)
  a0:	00c7c783          	lbu	a5,12(a5)
  a4:	00f747b3          	xor	a5,a4,a5
  a8:	00f52a23          	sw	a5,20(a0)
  ac:	00008067          	ret

000000b0 <ps>:
  b0:	fc010113          	addi	sp,sp,-64 # 1ffc0 <end+0x1f41c>
  b4:	03412623          	sw	s4,44(sp)
  b8:	02052a03          	lw	s4,32(a0)
  bc:	03712023          	sw	s7,32(sp)
  c0:	02452b83          	lw	s7,36(a0)
  c4:	000017b7          	lui	a5,0x1
  c8:	02812e23          	sw	s0,60(sp)
  cc:	02912c23          	sw	s1,56(sp)
  d0:	03212a23          	sw	s2,52(sp)
  d4:	03512423          	sw	s5,40(sp)
  d8:	03612223          	sw	s6,36(sp)
  dc:	00052903          	lw	s2,0(a0)
  e0:	00852403          	lw	s0,8(a0)
  e4:	01052283          	lw	t0,16(a0)
  e8:	01852b03          	lw	s6,24(a0)
  ec:	00452483          	lw	s1,4(a0)
  f0:	00c52383          	lw	t2,12(a0)
  f4:	01452f83          	lw	t6,20(a0)
  f8:	01c52a83          	lw	s5,28(a0)
  fc:	01812e23          	sw	s8,28(sp)
 100:	93078c13          	addi	s8,a5,-1744 # 930 <round_constants>
 104:	000a0793          	mv	a5,s4
 108:	03312823          	sw	s3,48(sp)
 10c:	01912c23          	sw	s9,24(sp)
 110:	01a12a23          	sw	s10,20(sp)
 114:	01b12823          	sw	s11,16(sp)
 118:	000b8a13          	mv	s4,s7
 11c:	00000993          	li	s3,0
 120:	80000cb7          	lui	s9,0x80000
 124:	01f00d13          	li	s10,31
 128:	02000d93          	li	s11,32
 12c:	00a12623          	sw	a0,12(sp)
 130:	00078b93          	mv	s7,a5
 134:	013cd7b3          	srl	a5,s9,s3
 138:	413d0733          	sub	a4,s10,s3
 13c:	0097feb3          	and	t4,a5,s1
 140:	0077f5b3          	and	a1,a5,t2
 144:	0127ff33          	and	t5,a5,s2
 148:	0087f533          	and	a0,a5,s0
 14c:	00eedeb3          	srl	t4,t4,a4
 150:	00e5d5b3          	srl	a1,a1,a4
 154:	0147f6b3          	and	a3,a5,s4
 158:	01f7f333          	and	t1,a5,t6
 15c:	00ef5f33          	srl	t5,t5,a4
 160:	00e55533          	srl	a0,a0,a4
 164:	004e9e93          	slli	t4,t4,0x4
 168:	00359593          	slli	a1,a1,0x3
 16c:	0177f633          	and	a2,a5,s7
 170:	0057fe33          	and	t3,a5,t0
 174:	0157f833          	and	a6,a5,s5
 178:	00bee5b3          	or	a1,t4,a1
 17c:	004f1f13          	slli	t5,t5,0x4
 180:	00e6d6b3          	srl	a3,a3,a4
 184:	00e35333          	srl	t1,t1,a4
 188:	00351513          	slli	a0,a0,0x3
 18c:	0167f8b3          	and	a7,a5,s6
 190:	00af6533          	or	a0,t5,a0
 194:	00e65633          	srl	a2,a2,a4
 198:	00ee5e33          	srl	t3,t3,a4
 19c:	00d5e6b3          	or	a3,a1,a3
 1a0:	00231313          	slli	t1,t1,0x2
 1a4:	00e85833          	srl	a6,a6,a4
 1a8:	00c56633          	or	a2,a0,a2
 1ac:	002e1e13          	slli	t3,t3,0x2
 1b0:	00e8d8b3          	srl	a7,a7,a4
 1b4:	0066e6b3          	or	a3,a3,t1
 1b8:	00181813          	slli	a6,a6,0x1
 1bc:	01c66633          	or	a2,a2,t3
 1c0:	00189893          	slli	a7,a7,0x1
 1c4:	0106e6b3          	or	a3,a3,a6
 1c8:	01166633          	or	a2,a2,a7
 1cc:	0ff6f693          	zext.b	a3,a3
 1d0:	00dc06b3          	add	a3,s8,a3
 1d4:	0ff67613          	zext.b	a2,a2
 1d8:	00c6cf03          	lbu	t5,12(a3)
 1dc:	00cc0633          	add	a2,s8,a2
 1e0:	00c64303          	lbu	t1,12(a2)
 1e4:	401f5893          	srai	a7,t5,0x1
 1e8:	0018f893          	andi	a7,a7,1
 1ec:	40135693          	srai	a3,t1,0x1
 1f0:	fff7c793          	not	a5,a5
 1f4:	00e898b3          	sll	a7,a7,a4
 1f8:	0016f693          	andi	a3,a3,1
 1fc:	00e696b3          	sll	a3,a3,a4
 200:	00fb7b33          	and	s6,s6,a5
 204:	01112423          	sw	a7,8(sp)
 208:	40435e93          	srai	t4,t1,0x4
 20c:	404f5e13          	srai	t3,t5,0x4
 210:	40335813          	srai	a6,t1,0x3
 214:	403f5513          	srai	a0,t5,0x3
 218:	40235593          	srai	a1,t1,0x2
 21c:	402f5613          	srai	a2,t5,0x2
 220:	0166eb33          	or	s6,a3,s6
 224:	00812683          	lw	a3,8(sp)
 228:	001efe93          	andi	t4,t4,1
 22c:	001e7e13          	andi	t3,t3,1
 230:	00187813          	andi	a6,a6,1
 234:	00157513          	andi	a0,a0,1
 238:	0015f593          	andi	a1,a1,1
 23c:	00167613          	andi	a2,a2,1
 240:	00137313          	andi	t1,t1,1
 244:	001f7f13          	andi	t5,t5,1
 248:	00ee9eb3          	sll	t4,t4,a4
 24c:	00f97933          	and	s2,s2,a5
 250:	00ee1e33          	sll	t3,t3,a4
 254:	0097f4b3          	and	s1,a5,s1
 258:	00e81833          	sll	a6,a6,a4
 25c:	00f47433          	and	s0,s0,a5
 260:	00e51533          	sll	a0,a0,a4
 264:	0077f3b3          	and	t2,a5,t2
 268:	00e595b3          	sll	a1,a1,a4
 26c:	00f2f2b3          	and	t0,t0,a5
 270:	00e61633          	sll	a2,a2,a4
 274:	01f7ffb3          	and	t6,a5,t6
 278:	0157fab3          	and	s5,a5,s5
 27c:	00e31333          	sll	t1,t1,a4
 280:	0177f8b3          	and	a7,a5,s7
 284:	00ef1733          	sll	a4,t5,a4
 288:	0147f7b3          	and	a5,a5,s4
 28c:	00198993          	addi	s3,s3,1
 290:	012ee933          	or	s2,t4,s2
 294:	009e64b3          	or	s1,t3,s1
 298:	00886433          	or	s0,a6,s0
 29c:	007563b3          	or	t2,a0,t2
 2a0:	0055e2b3          	or	t0,a1,t0
 2a4:	01f66fb3          	or	t6,a2,t6
 2a8:	0156eab3          	or	s5,a3,s5
 2ac:	01136bb3          	or	s7,t1,a7
 2b0:	00f76a33          	or	s4,a4,a5
 2b4:	e9b990e3          	bne	s3,s11,134 <ps+0x84>
 2b8:	00c12703          	lw	a4,12(sp)
 2bc:	000b8793          	mv	a5,s7
 2c0:	03012983          	lw	s3,48(sp)
 2c4:	00872423          	sw	s0,8(a4)
 2c8:	03c12403          	lw	s0,60(sp)
 2cc:	01272023          	sw	s2,0(a4)
 2d0:	00972223          	sw	s1,4(a4)
 2d4:	01672c23          	sw	s6,24(a4)
 2d8:	01572e23          	sw	s5,28(a4)
 2dc:	03472223          	sw	s4,36(a4)
 2e0:	00772623          	sw	t2,12(a4)
 2e4:	00572823          	sw	t0,16(a4)
 2e8:	01f72a23          	sw	t6,20(a4)
 2ec:	02f72023          	sw	a5,32(a4)
 2f0:	03812483          	lw	s1,56(sp)
 2f4:	03412903          	lw	s2,52(sp)
 2f8:	02c12a03          	lw	s4,44(sp)
 2fc:	02812a83          	lw	s5,40(sp)
 300:	02412b03          	lw	s6,36(sp)
 304:	02012b83          	lw	s7,32(sp)
 308:	01c12c03          	lw	s8,28(sp)
 30c:	01812c83          	lw	s9,24(sp)
 310:	01412d03          	lw	s10,20(sp)
 314:	01012d83          	lw	s11,16(sp)
 318:	04010113          	addi	sp,sp,64
 31c:	00008067          	ret

00000320 <pl>:
 320:	01852883          	lw	a7,24(a0)
 324:	fd010113          	addi	sp,sp,-48
 328:	01512c23          	sw	s5,24(sp)
 32c:	01052703          	lw	a4,16(a0)
 330:	01452683          	lw	a3,20(a0)
 334:	00a8da93          	srli	s5,a7,0xa
 338:	01c52883          	lw	a7,28(a0)
 33c:	00852603          	lw	a2,8(a0)
 340:	00c52583          	lw	a1,12(a0)
 344:	02812623          	sw	s0,44(sp)
 348:	02912423          	sw	s1,40(sp)
 34c:	01412e23          	sw	s4,28(sp)
 350:	01612a23          	sw	s6,20(sp)
 354:	00a8da13          	srli	s4,a7,0xa
 358:	0016db13          	srli	s6,a3,0x1
 35c:	01f71493          	slli	s1,a4,0x1f
 360:	01689413          	slli	s0,a7,0x16
 364:	01852883          	lw	a7,24(a0)
 368:	01812623          	sw	s8,12(sp)
 36c:	00052803          	lw	a6,0(a0)
 370:	00452783          	lw	a5,4(a0)
 374:	00359c13          	slli	s8,a1,0x3
 378:	009b44b3          	xor	s1,s6,s1
 37c:	01d65f13          	srli	t5,a2,0x1d
 380:	01ec4f33          	xor	t5,s8,t5
 384:	00d4cc33          	xor	s8,s1,a3
 388:	01852483          	lw	s1,24(a0)
 38c:	01689e13          	slli	t3,a7,0x16
 390:	02052883          	lw	a7,32(a0)
 394:	01a12223          	sw	s10,4(sp)
 398:	008ac433          	xor	s0,s5,s0
 39c:	00d81d13          	slli	s10,a6,0xd
 3a0:	0137d293          	srli	t0,a5,0x13
 3a4:	01a2c2b3          	xor	t0,t0,s10
 3a8:	00944d33          	xor	s10,s0,s1
 3ac:	01c52403          	lw	s0,28(a0)
 3b0:	03312023          	sw	s3,32(sp)
 3b4:	0078d993          	srli	s3,a7,0x7
 3b8:	02452883          	lw	a7,36(a0)
 3bc:	01712823          	sw	s7,16(sp)
 3c0:	01f69e93          	slli	t4,a3,0x1f
 3c4:	00175b93          	srli	s7,a4,0x1
 3c8:	01ca4e33          	xor	t3,s4,t3
 3cc:	008e4e33          	xor	t3,t3,s0
 3d0:	01dbceb3          	xor	t4,s7,t4
 3d4:	01145b93          	srli	s7,s0,0x11
 3d8:	02052403          	lw	s0,32(a0)
 3dc:	03212223          	sw	s2,36(sp)
 3e0:	01989313          	slli	t1,a7,0x19
 3e4:	0078d913          	srli	s2,a7,0x7
 3e8:	02052883          	lw	a7,32(a0)
 3ec:	01b12023          	sw	s11,0(sp)
 3f0:	01385393          	srli	t2,a6,0x13
 3f4:	00d79d93          	slli	s11,a5,0xd
 3f8:	0069c333          	xor	t1,s3,t1
 3fc:	00834333          	xor	t1,t1,s0
 400:	01b3c3b3          	xor	t2,t2,s11
 404:	0114dd93          	srli	s11,s1,0x11
 408:	01741493          	slli	s1,s0,0x17
 40c:	02452403          	lw	s0,36(a0)
 410:	01989893          	slli	a7,a7,0x19
 414:	011948b3          	xor	a7,s2,a7
 418:	01912423          	sw	s9,8(sp)
 41c:	0088c8b3          	xor	a7,a7,s0
 420:	01d5dc93          	srli	s9,a1,0x1d
 424:	00361f93          	slli	t6,a2,0x3
 428:	01741413          	slli	s0,s0,0x17
 42c:	019fcfb3          	xor	t6,t6,s9
 430:	0088c433          	xor	s0,a7,s0
 434:	02052883          	lw	a7,32(a0)
 438:	00cfcfb3          	xor	t6,t6,a2
 43c:	01961a13          	slli	s4,a2,0x19
 440:	0103c3b3          	xor	t2,t2,a6
 444:	01c85b13          	srli	s6,a6,0x1c
 448:	014fca33          	xor	s4,t6,s4
 44c:	017e4bb3          	xor	s7,t3,s7
 450:	01c52f83          	lw	t6,28(a0)
 454:	01852e03          	lw	t3,24(a0)
 458:	009344b3          	xor	s1,t1,s1
 45c:	02452303          	lw	t1,36(a0)
 460:	00f2c2b3          	xor	t0,t0,a5
 464:	01c7da93          	srli	s5,a5,0x1c
 468:	0163cb33          	xor	s6,t2,s6
 46c:	00479793          	slli	a5,a5,0x4
 470:	0098d893          	srli	a7,a7,0x9
 474:	00bf4f33          	xor	t5,t5,a1
 478:	00eeceb3          	xor	t4,t4,a4
 47c:	0066dc93          	srli	s9,a3,0x6
 480:	01959993          	slli	s3,a1,0x19
 484:	00675913          	srli	s2,a4,0x6
 488:	00fb47b3          	xor	a5,s6,a5
 48c:	01144433          	xor	s0,s0,a7
 490:	00f52023          	sw	a5,0(a0)
 494:	013f49b3          	xor	s3,t5,s3
 498:	012ec933          	xor	s2,t4,s2
 49c:	01bd4f33          	xor	t5,s10,s11
 4a0:	019c4eb3          	xor	t4,s8,s9
 4a4:	01a71713          	slli	a4,a4,0x1a
 4a8:	02852223          	sw	s0,36(a0)
 4ac:	0152cab3          	xor	s5,t0,s5
 4b0:	02c12403          	lw	s0,44(sp)
 4b4:	00481813          	slli	a6,a6,0x4
 4b8:	0075d593          	srli	a1,a1,0x7
 4bc:	00765613          	srli	a2,a2,0x7
 4c0:	01a69693          	slli	a3,a3,0x1a
 4c4:	00ff9f93          	slli	t6,t6,0xf
 4c8:	00fe1e13          	slli	t3,t3,0xf
 4cc:	00935313          	srli	t1,t1,0x9
 4d0:	010acab3          	xor	s5,s5,a6
 4d4:	00ba4a33          	xor	s4,s4,a1
 4d8:	00c9c9b3          	xor	s3,s3,a2
 4dc:	00d94933          	xor	s2,s2,a3
 4e0:	00eeceb3          	xor	t4,t4,a4
 4e4:	01cbcbb3          	xor	s7,s7,t3
 4e8:	0064c4b3          	xor	s1,s1,t1
 4ec:	01ff4733          	xor	a4,t5,t6
 4f0:	01552223          	sw	s5,4(a0)
 4f4:	01452423          	sw	s4,8(a0)
 4f8:	01352623          	sw	s3,12(a0)
 4fc:	01252823          	sw	s2,16(a0)
 500:	01752e23          	sw	s7,28(a0)
 504:	02952023          	sw	s1,32(a0)
 508:	01d52a23          	sw	t4,20(a0)
 50c:	00e52c23          	sw	a4,24(a0)
 510:	02812483          	lw	s1,40(sp)
 514:	02412903          	lw	s2,36(sp)
 518:	02012983          	lw	s3,32(sp)
 51c:	01c12a03          	lw	s4,28(sp)
 520:	01812a83          	lw	s5,24(sp)
 524:	01412b03          	lw	s6,20(sp)
 528:	01012b83          	lw	s7,16(sp)
 52c:	00c12c03          	lw	s8,12(sp)
 530:	00812c83          	lw	s9,8(sp)
 534:	00412d03          	lw	s10,4(sp)
 538:	00012d83          	lw	s11,0(sp)
 53c:	03010113          	addi	sp,sp,48
 540:	00008067          	ret

00000544 <permutation>:
 544:	fc010113          	addi	sp,sp,-64
 548:	02912a23          	sw	s1,52(sp)
 54c:	00050493          	mv	s1,a0
 550:	00452e03          	lw	t3,4(a0)
 554:	00852303          	lw	t1,8(a0)
 558:	00c52883          	lw	a7,12(a0)
 55c:	01052803          	lw	a6,16(a0)
 560:	0184a603          	lw	a2,24(s1)
 564:	01452503          	lw	a0,20(a0)
 568:	01c4a683          	lw	a3,28(s1)
 56c:	0204a703          	lw	a4,32(s1)
 570:	0244a783          	lw	a5,36(s1)
 574:	0004ae83          	lw	t4,0(s1)
 578:	02112e23          	sw	ra,60(sp)
 57c:	02812c23          	sw	s0,56(sp)
 580:	03212823          	sw	s2,48(sp)
 584:	01d12423          	sw	t4,8(sp)
 588:	01c12623          	sw	t3,12(sp)
 58c:	00612823          	sw	t1,16(sp)
 590:	01112a23          	sw	a7,20(sp)
 594:	01012c23          	sw	a6,24(sp)
 598:	00a12e23          	sw	a0,28(sp)
 59c:	02c12023          	sw	a2,32(sp)
 5a0:	02d12223          	sw	a3,36(sp)
 5a4:	02e12423          	sw	a4,40(sp)
 5a8:	02f12623          	sw	a5,44(sp)
 5ac:	04058463          	beqz	a1,5f4 <permutation+0xb0>
 5b0:	00001437          	lui	s0,0x1
 5b4:	93040413          	addi	s0,s0,-1744 # 930 <round_constants>
 5b8:	00c00793          	li	a5,12
 5bc:	40b787b3          	sub	a5,a5,a1
 5c0:	00b405b3          	add	a1,s0,a1
 5c4:	00f58933          	add	s2,a1,a5
 5c8:	00f40433          	add	s0,s0,a5
 5cc:	00044703          	lbu	a4,0(s0)
 5d0:	01c12783          	lw	a5,28(sp)
 5d4:	00810513          	addi	a0,sp,8
 5d8:	00140413          	addi	s0,s0,1
 5dc:	00e7c7b3          	xor	a5,a5,a4
 5e0:	00f12e23          	sw	a5,28(sp)
 5e4:	acdff0ef          	jal	ra,b0 <ps>
 5e8:	00810513          	addi	a0,sp,8
 5ec:	d35ff0ef          	jal	ra,320 <pl>
 5f0:	fc891ee3          	bne	s2,s0,5cc <permutation+0x88>
 5f4:	00c12783          	lw	a5,12(sp)
 5f8:	03c12083          	lw	ra,60(sp)
 5fc:	03812403          	lw	s0,56(sp)
 600:	00f4a223          	sw	a5,4(s1)
 604:	01012783          	lw	a5,16(sp)
 608:	03012903          	lw	s2,48(sp)
 60c:	00f4a423          	sw	a5,8(s1)
 610:	00812783          	lw	a5,8(sp)
 614:	00f4a023          	sw	a5,0(s1)
 618:	01412783          	lw	a5,20(sp)
 61c:	00f4a623          	sw	a5,12(s1)
 620:	01812783          	lw	a5,24(sp)
 624:	00f4a823          	sw	a5,16(s1)
 628:	01c12783          	lw	a5,28(sp)
 62c:	00f4aa23          	sw	a5,20(s1)
 630:	02012783          	lw	a5,32(sp)
 634:	00f4ac23          	sw	a5,24(s1)
 638:	02412783          	lw	a5,36(sp)
 63c:	00f4ae23          	sw	a5,28(s1)
 640:	02812783          	lw	a5,40(sp)
 644:	02f4a023          	sw	a5,32(s1)
 648:	02c12783          	lw	a5,44(sp)
 64c:	02f4a223          	sw	a5,36(s1)
 650:	03412483          	lw	s1,52(sp)
 654:	04010113          	addi	sp,sp,64
 658:	00008067          	ret

0000065c <ascon_hash>:
 65c:	fb010113          	addi	sp,sp,-80
 660:	004017b7          	lui	a5,0x401
 664:	c0078793          	addi	a5,a5,-1024 # 400c00 <end+0x40005c>
 668:	04812423          	sw	s0,72(sp)
 66c:	00001437          	lui	s0,0x1
 670:	03312e23          	sw	s3,60(sp)
 674:	00f12423          	sw	a5,8(sp)
 678:	93040993          	addi	s3,s0,-1744 # 930 <round_constants>
 67c:	10000793          	li	a5,256
 680:	04912223          	sw	s1,68(sp)
 684:	05212023          	sw	s2,64(sp)
 688:	03412c23          	sw	s4,56(sp)
 68c:	03612823          	sw	s6,48(sp)
 690:	04112623          	sw	ra,76(sp)
 694:	03512a23          	sw	s5,52(sp)
 698:	00050a13          	mv	s4,a0
 69c:	00058913          	mv	s2,a1
 6a0:	00060b13          	mv	s6,a2
 6a4:	00f12623          	sw	a5,12(sp)
 6a8:	00012823          	sw	zero,16(sp)
 6ac:	00012a23          	sw	zero,20(sp)
 6b0:	00012c23          	sw	zero,24(sp)
 6b4:	00012e23          	sw	zero,28(sp)
 6b8:	02012023          	sw	zero,32(sp)
 6bc:	02012223          	sw	zero,36(sp)
 6c0:	02012423          	sw	zero,40(sp)
 6c4:	02012623          	sw	zero,44(sp)
 6c8:	00c98493          	addi	s1,s3,12
 6cc:	93040413          	addi	s0,s0,-1744
 6d0:	00044703          	lbu	a4,0(s0)
 6d4:	01c12783          	lw	a5,28(sp)
 6d8:	00810513          	addi	a0,sp,8
 6dc:	00140413          	addi	s0,s0,1
 6e0:	00e7c7b3          	xor	a5,a5,a4
 6e4:	00f12e23          	sw	a5,28(sp)
 6e8:	9c9ff0ef          	jal	ra,b0 <ps>
 6ec:	00810513          	addi	a0,sp,8
 6f0:	c31ff0ef          	jal	ra,320 <pl>
 6f4:	fc941ee3          	bne	s0,s1,6d0 <ascon_hash+0x74>
 6f8:	001b5b13          	srli	s6,s6,0x1
 6fc:	00812603          	lw	a2,8(sp)
 700:	00c12783          	lw	a5,12(sp)
 704:	01012e03          	lw	t3,16(sp)
 708:	01412e83          	lw	t4,20(sp)
 70c:	01812883          	lw	a7,24(sp)
 710:	01c12703          	lw	a4,28(sp)
 714:	02012303          	lw	t1,32(sp)
 718:	02412583          	lw	a1,36(sp)
 71c:	02812503          	lw	a0,40(sp)
 720:	02c12803          	lw	a6,44(sp)
 724:	0a0b0063          	beqz	s6,7c4 <ascon_hash+0x168>
 728:	00000a93          	li	s5,0
 72c:	00492f03          	lw	t5,4(s2)
 730:	00092683          	lw	a3,0(s2)
 734:	01c12823          	sw	t3,16(sp)
 738:	01e7c7b3          	xor	a5,a5,t5
 73c:	00c6c6b3          	xor	a3,a3,a2
 740:	00d12423          	sw	a3,8(sp)
 744:	00f12623          	sw	a5,12(sp)
 748:	01d12a23          	sw	t4,20(sp)
 74c:	01112c23          	sw	a7,24(sp)
 750:	02612023          	sw	t1,32(sp)
 754:	02b12223          	sw	a1,36(sp)
 758:	02a12423          	sw	a0,40(sp)
 75c:	03012623          	sw	a6,44(sp)
 760:	00098413          	mv	s0,s3
 764:	0080006f          	j	76c <ascon_hash+0x110>
 768:	01c12703          	lw	a4,28(sp)
 76c:	00044783          	lbu	a5,0(s0)
 770:	00810513          	addi	a0,sp,8
 774:	00140413          	addi	s0,s0,1
 778:	00e7c7b3          	xor	a5,a5,a4
 77c:	00f12e23          	sw	a5,28(sp)
 780:	931ff0ef          	jal	ra,b0 <ps>
 784:	00810513          	addi	a0,sp,8
 788:	b99ff0ef          	jal	ra,320 <pl>
 78c:	fc941ee3          	bne	s0,s1,768 <ascon_hash+0x10c>
 790:	001a8a93          	addi	s5,s5,1
 794:	00812603          	lw	a2,8(sp)
 798:	00c12783          	lw	a5,12(sp)
 79c:	01012e03          	lw	t3,16(sp)
 7a0:	01412e83          	lw	t4,20(sp)
 7a4:	01812883          	lw	a7,24(sp)
 7a8:	01c12703          	lw	a4,28(sp)
 7ac:	02012303          	lw	t1,32(sp)
 7b0:	02412583          	lw	a1,36(sp)
 7b4:	02812503          	lw	a0,40(sp)
 7b8:	02c12803          	lw	a6,44(sp)
 7bc:	00890913          	addi	s2,s2,8
 7c0:	f76a96e3          	bne	s5,s6,72c <ascon_hash+0xd0>
 7c4:	020a0913          	addi	s2,s4,32
 7c8:	00ca2023          	sw	a2,0(s4)
 7cc:	00fa2223          	sw	a5,4(s4)
 7d0:	00c12423          	sw	a2,8(sp)
 7d4:	00f12623          	sw	a5,12(sp)
 7d8:	01c12823          	sw	t3,16(sp)
 7dc:	01d12a23          	sw	t4,20(sp)
 7e0:	01112c23          	sw	a7,24(sp)
 7e4:	02612023          	sw	t1,32(sp)
 7e8:	02b12223          	sw	a1,36(sp)
 7ec:	02a12423          	sw	a0,40(sp)
 7f0:	03012623          	sw	a6,44(sp)
 7f4:	00098413          	mv	s0,s3
 7f8:	0080006f          	j	800 <ascon_hash+0x1a4>
 7fc:	01c12703          	lw	a4,28(sp)
 800:	00044783          	lbu	a5,0(s0)
 804:	00810513          	addi	a0,sp,8
 808:	00140413          	addi	s0,s0,1
 80c:	00e7c7b3          	xor	a5,a5,a4
 810:	00f12e23          	sw	a5,28(sp)
 814:	89dff0ef          	jal	ra,b0 <ps>
 818:	00810513          	addi	a0,sp,8
 81c:	b05ff0ef          	jal	ra,320 <pl>
 820:	fc849ee3          	bne	s1,s0,7fc <ascon_hash+0x1a0>
 824:	008a0a13          	addi	s4,s4,8
 828:	00812603          	lw	a2,8(sp)
 82c:	00c12783          	lw	a5,12(sp)
 830:	01012e03          	lw	t3,16(sp)
 834:	01412e83          	lw	t4,20(sp)
 838:	01812883          	lw	a7,24(sp)
 83c:	01c12703          	lw	a4,28(sp)
 840:	02012303          	lw	t1,32(sp)
 844:	02412583          	lw	a1,36(sp)
 848:	02812503          	lw	a0,40(sp)
 84c:	02c12803          	lw	a6,44(sp)
 850:	f72a1ce3          	bne	s4,s2,7c8 <ascon_hash+0x16c>
 854:	04c12083          	lw	ra,76(sp)
 858:	04812403          	lw	s0,72(sp)
 85c:	04412483          	lw	s1,68(sp)
 860:	04012903          	lw	s2,64(sp)
 864:	03c12983          	lw	s3,60(sp)
 868:	03812a03          	lw	s4,56(sp)
 86c:	03412a83          	lw	s5,52(sp)
 870:	03012b03          	lw	s6,48(sp)
 874:	05010113          	addi	sp,sp,80
 878:	00008067          	ret

0000087c <print_chr>:
 87c:	800007b7          	lui	a5,0x80000
 880:	00a7a023          	sw	a0,0(a5) # 80000000 <end+0x7ffff45c>
 884:	00008067          	ret

00000888 <print_str>:
 888:	00054783          	lbu	a5,0(a0)
 88c:	00078c63          	beqz	a5,8a4 <print_str+0x1c>
 890:	80000737          	lui	a4,0x80000
 894:	00150513          	addi	a0,a0,1
 898:	00f72023          	sw	a5,0(a4) # 80000000 <end+0x7ffff45c>
 89c:	00054783          	lbu	a5,0(a0)
 8a0:	fe079ae3          	bnez	a5,894 <print_str+0xc>
 8a4:	00008067          	ret

000008a8 <print_dec>:
 8a8:	ff010113          	addi	sp,sp,-16
 8ac:	00410613          	addi	a2,sp,4
 8b0:	00060793          	mv	a5,a2
 8b4:	00a00713          	li	a4,10
 8b8:	00051463          	bnez	a0,8c0 <print_dec+0x18>
 8bc:	00c79c63          	bne	a5,a2,8d4 <print_dec+0x2c>
 8c0:	02e576b3          	remu	a3,a0,a4
 8c4:	00178793          	addi	a5,a5,1
 8c8:	02e55533          	divu	a0,a0,a4
 8cc:	fed78fa3          	sb	a3,-1(a5)
 8d0:	fe9ff06f          	j	8b8 <print_dec+0x10>
 8d4:	800006b7          	lui	a3,0x80000
 8d8:	fff7c703          	lbu	a4,-1(a5)
 8dc:	fff78793          	addi	a5,a5,-1
 8e0:	03070713          	addi	a4,a4,48
 8e4:	00e6a023          	sw	a4,0(a3) # 80000000 <end+0x7ffff45c>
 8e8:	fec798e3          	bne	a5,a2,8d8 <print_dec+0x30>
 8ec:	01010113          	addi	sp,sp,16
 8f0:	00008067          	ret

000008f4 <print_hex>:
 8f4:	fff58593          	addi	a1,a1,-1
 8f8:	00259593          	slli	a1,a1,0x2
 8fc:	0205c863          	bltz	a1,92c <print_hex+0x38>
 900:	00001737          	lui	a4,0x1
 904:	b5070713          	addi	a4,a4,-1200 # b50 <main+0x1a0>
 908:	80000637          	lui	a2,0x80000
 90c:	ffc00693          	li	a3,-4
 910:	00b557b3          	srl	a5,a0,a1
 914:	00f7f793          	andi	a5,a5,15
 918:	00f707b3          	add	a5,a4,a5
 91c:	0007c783          	lbu	a5,0(a5)
 920:	ffc58593          	addi	a1,a1,-4
 924:	00f62023          	sw	a5,0(a2) # 80000000 <end+0x7ffff45c>
 928:	fed594e3          	bne	a1,a3,910 <print_hex+0x1c>
 92c:	00008067          	ret

00000930 <round_constants>:
 930:	e1f0                	fsw	fa2,68(a1)
 932:	c3d2                	sw	s4,196(sp)
 934:	a5b4                	fsd	fa3,72(a1)
 936:	8796                	mv	a5,t0
 938:	6978                	flw	fa4,84(a0)
 93a:	4b5a                	lw	s6,148(sp)

0000093c <sbox>:
 93c:	0b04                	addi	s1,sp,400
 93e:	141f 151a 0209      	.byte	0x1f, 0x14, 0x1a, 0x15, 0x09, 0x02
 944:	1208051b          	.4byte	0x1208051b
 948:	031d                	addi	t1,t1,7
 94a:	1c06                	slli	s8,s8,0x21
 94c:	131e                	slli	t1,t1,0x27
 94e:	0d000e07          	.4byte	0xd000e07
 952:	1811                	addi	a6,a6,-28
 954:	0c10                	addi	a2,sp,528
 956:	1901                	addi	s2,s2,-32
 958:	0a16                	slli	s4,s4,0x5
 95a:	4347170f          	.4byte	0x4347170f
 95e:	28203a43          	fmadd.s	fs4,ft0,ft2,ft5,rup
 962:	2029                	jal	96c <sbox+0x30>
 964:	3231                	jal	270 <ps+0x1c0>
 966:	322e                	fld	ft4,232(sp)
 968:	302e                	fld	ft0,232(sp)
 96a:	4100                	lw	s0,0(a0)
 96c:	0020                	addi	s0,sp,8
 96e:	0000                	unimp
 970:	6972                	flw	fs2,28(sp)
 972:	00766373          	csrrsi	t1,0x7,12
 976:	1601                	addi	a2,a2,-32
 978:	0000                	unimp
 97a:	0400                	addi	s0,sp,512
 97c:	0510                	addi	a2,sp,640
 97e:	7672                	flw	fa2,60(sp)
 980:	32693233          	.4byte	0x32693233
 984:	3070                	fld	fa2,224(s0)
 986:	6d5f 7032 0030      	.byte	0x5f, 0x6d, 0x32, 0x70, 0x30, 0x00
 98c:	6964                	flw	fs1,84(a0)
 98e:	74736567          	.4byte	0x74736567
 992:	3120                	fld	fs0,96(a0)
 994:	203a                	fld	ft0,392(sp)
 996:	7830                	flw	fa2,112(s0)
 998:	0000                	unimp
 99a:	0000                	unimp
 99c:	002e                	c.slli	zero,0xb
 99e:	0000                	unimp
 9a0:	6964                	flw	fs1,84(a0)
 9a2:	74736567          	.4byte	0x74736567
 9a6:	3220                	fld	fs0,96(a2)
 9a8:	203a                	fld	ft0,392(sp)
 9aa:	7830                	flw	fa2,112(s0)
 9ac:	0000                	unimp
	...

000009b0 <main>:
 9b0:	000016b7          	lui	a3,0x1
 9b4:	adc68693          	addi	a3,a3,-1316 # adc <main+0x12c>
 9b8:	0106a703          	lw	a4,16(a3)
 9bc:	0146a783          	lw	a5,20(a3)
 9c0:	0006a803          	lw	a6,0(a3)
 9c4:	0046a503          	lw	a0,4(a3)
 9c8:	0086a583          	lw	a1,8(a3)
 9cc:	00c6a603          	lw	a2,12(a3)
 9d0:	f8010113          	addi	sp,sp,-128
 9d4:	07212823          	sw	s2,112(sp)
 9d8:	03810913          	addi	s2,sp,56
 9dc:	00e12823          	sw	a4,16(sp)
 9e0:	00f12a23          	sw	a5,20(sp)
 9e4:	06112e23          	sw	ra,124(sp)
 9e8:	01868793          	addi	a5,a3,24
 9ec:	06812c23          	sw	s0,120(sp)
 9f0:	06912a23          	sw	s1,116(sp)
 9f4:	01012023          	sw	a6,0(sp)
 9f8:	00a12223          	sw	a0,4(sp)
 9fc:	00b12423          	sw	a1,8(sp)
 a00:	00c12623          	sw	a2,12(sp)
 a04:	00090713          	mv	a4,s2
 a08:	04868693          	addi	a3,a3,72
 a0c:	0007a803          	lw	a6,0(a5)
 a10:	0047a503          	lw	a0,4(a5)
 a14:	0087a583          	lw	a1,8(a5)
 a18:	00c7a603          	lw	a2,12(a5)
 a1c:	01072023          	sw	a6,0(a4)
 a20:	00a72223          	sw	a0,4(a4)
 a24:	00b72423          	sw	a1,8(a4)
 a28:	00c72623          	sw	a2,12(a4)
 a2c:	01078793          	addi	a5,a5,16
 a30:	01070713          	addi	a4,a4,16
 a34:	fcd79ce3          	bne	a5,a3,a0c <main+0x5c>
 a38:	0007a683          	lw	a3,0(a5)
 a3c:	0047a783          	lw	a5,4(a5)
 a40:	00600613          	li	a2,6
 a44:	00010593          	mv	a1,sp
 a48:	01810513          	addi	a0,sp,24
 a4c:	00d72023          	sw	a3,0(a4)
 a50:	00f72223          	sw	a5,4(a4)
 a54:	c09ff0ef          	jal	ra,65c <ascon_hash>
 a58:	00001537          	lui	a0,0x1
 a5c:	98c50513          	addi	a0,a0,-1652 # 98c <sbox+0x50>
 a60:	01810413          	addi	s0,sp,24
 a64:	e25ff0ef          	jal	ra,888 <print_str>
 a68:	00040493          	mv	s1,s0
 a6c:	0004a503          	lw	a0,0(s1)
 a70:	00800593          	li	a1,8
 a74:	00448493          	addi	s1,s1,4
 a78:	e7dff0ef          	jal	ra,8f4 <print_hex>
 a7c:	fe9918e3          	bne	s2,s1,a6c <main+0xbc>
 a80:	000014b7          	lui	s1,0x1
 a84:	99c48513          	addi	a0,s1,-1636 # 99c <sbox+0x60>
 a88:	e01ff0ef          	jal	ra,888 <print_str>
 a8c:	01810513          	addi	a0,sp,24
 a90:	00e00613          	li	a2,14
 a94:	00090593          	mv	a1,s2
 a98:	bc5ff0ef          	jal	ra,65c <ascon_hash>
 a9c:	00001537          	lui	a0,0x1
 aa0:	9a050513          	addi	a0,a0,-1632 # 9a0 <sbox+0x64>
 aa4:	de5ff0ef          	jal	ra,888 <print_str>
 aa8:	00042503          	lw	a0,0(s0)
 aac:	00800593          	li	a1,8
 ab0:	00440413          	addi	s0,s0,4
 ab4:	e41ff0ef          	jal	ra,8f4 <print_hex>
 ab8:	fe8918e3          	bne	s2,s0,aa8 <main+0xf8>
 abc:	99c48513          	addi	a0,s1,-1636
 ac0:	dc9ff0ef          	jal	ra,888 <print_str>
 ac4:	07c12083          	lw	ra,124(sp)
 ac8:	07812403          	lw	s0,120(sp)
 acc:	07412483          	lw	s1,116(sp)
 ad0:	07012903          	lw	s2,112(sp)
 ad4:	08010113          	addi	sp,sp,128
 ad8:	00008067          	ret
 adc:	00010203          	lb	tp,0(sp)
 ae0:	04050607          	.4byte	0x4050607
 ae4:	08090a0b          	.4byte	0x8090a0b
 ae8:	0c0d0e0f          	.4byte	0xc0d0e0f
 aec:	10111213          	.4byte	0x10111213
 af0:	0000                	unimp
 af2:	8000                	.2byte	0x8000
 af4:	00010203          	lb	tp,0(sp)
 af8:	04050607          	.4byte	0x4050607
 afc:	08090a0b          	.4byte	0x8090a0b
 b00:	0c0d0e0f          	.4byte	0xc0d0e0f
 b04:	10111213          	.4byte	0x10111213
 b08:	14151617          	auipc	a2,0x14151
 b0c:	18191a1b          	.4byte	0x18191a1b
 b10:	1e1f 1c1d 2223      	.byte	0x1f, 0x1e, 0x1d, 0x1c, 0x23, 0x22
 b16:	2021                	jal	b1e <main+0x16e>
 b18:	24252627          	fsw	ft2,588(a0)
 b1c:	28292a2b          	.4byte	0x28292a2b
 b20:	2c2d2e2f          	.4byte	0x2c2d2e2f
 b24:	30313233          	.4byte	0x30313233
 b28:	8000                	.2byte	0x8000
 b2a:	3435                	jal	556 <permutation+0x12>
 b2c:	2041                	jal	bac <end+0x8>
 b2e:	0000                	unimp
 b30:	7200                	flw	fs0,32(a2)
 b32:	7369                	lui	t1,0xffffa
 b34:	01007663          	bgeu	zero,a6,b40 <main+0x190>
 b38:	0016                	c.slli	zero,0x5
 b3a:	0000                	unimp
 b3c:	1004                	addi	s1,sp,32
 b3e:	7205                	lui	tp,0xfffe1
 b40:	3376                	fld	ft6,376(sp)
 b42:	6932                	flw	fs2,12(sp)
 b44:	7032                	flw	ft0,44(sp)
 b46:	5f30                	lw	a2,120(a4)
 b48:	326d                	jal	4f2 <pl+0x1d2>
 b4a:	3070                	fld	fa2,224(s0)
 b4c:	0000                	unimp
 b4e:	0000                	unimp
 b50:	3130                	fld	fa2,96(a0)
 b52:	3332                	fld	ft6,296(sp)
 b54:	3534                	fld	fa3,104(a0)
 b56:	3736                	fld	fa4,360(sp)
 b58:	3938                	fld	fa4,112(a0)
 b5a:	4241                	li	tp,16
 b5c:	46454443          	.4byte	0x46454443
 b60:	4100                	lw	s0,0(a0)
 b62:	0020                	addi	s0,sp,8
 b64:	0000                	unimp
 b66:	6972                	flw	fs2,28(sp)
 b68:	00766373          	csrrsi	t1,0x7,12
 b6c:	1601                	addi	a2,a2,-32 # 14151ae8 <end+0x14150f44>
 b6e:	0000                	unimp
 b70:	0400                	addi	s0,sp,512
 b72:	0510                	addi	a2,sp,640
 b74:	7672                	flw	fa2,60(sp)
 b76:	32693233          	.4byte	0x32693233
 b7a:	3070                	fld	fa2,224(s0)
 b7c:	6d5f 7032 0030      	.byte	0x5f, 0x6d, 0x32, 0x70, 0x30, 0x00
 b82:	1e41                	addi	t3,t3,-16
 b84:	0000                	unimp
 b86:	7200                	flw	fs0,32(a2)
 b88:	7369                	lui	t1,0xffffa
 b8a:	01007663          	bgeu	zero,a6,b96 <main+0x1e6>
 b8e:	0014                	.2byte	0x14
 b90:	0000                	unimp
 b92:	7205                	lui	tp,0xfffe1
 b94:	3376                	fld	ft6,376(sp)
 b96:	6932                	flw	fs2,12(sp)
 b98:	7032                	flw	ft0,44(sp)
 b9a:	5f30                	lw	a2,120(a4)
 b9c:	326d                	jal	546 <permutation+0x2>
 b9e:	3070                	fld	fa2,224(s0)
 ba0:	0000                	unimp
	...
