
firmware.elf:     file format elf32-littleriscv


Disassembly of section .memory:

00000000 <reset_vec>:
   0:	0600600b          	.4byte	0x600600b
   4:	3d00006f          	j	3d4 <irq_stack>
   8:	00000013          	nop
   c:	00000013          	nop

00000010 <irq_vec>:
  10:	0200a10b          	.4byte	0x200a10b
  14:	0201218b          	.4byte	0x201218b
  18:	15400093          	li	ra,340
  1c:	0000410b          	.4byte	0x410b
  20:	0020a023          	sw	sp,0(ra)
  24:	0001410b          	.4byte	0x1410b
  28:	0020a223          	sw	sp,4(ra)
  2c:	0001c10b          	.4byte	0x1c10b
  30:	0020a423          	sw	sp,8(ra)
  34:	0030a623          	sw	gp,12(ra)
  38:	0040a823          	sw	tp,16(ra)
  3c:	0050aa23          	sw	t0,20(ra)
  40:	0060ac23          	sw	t1,24(ra)
  44:	0070ae23          	sw	t2,28(ra)
  48:	0280a023          	sw	s0,32(ra)
  4c:	0290a223          	sw	s1,36(ra)
  50:	02a0a423          	sw	a0,40(ra)
  54:	02b0a623          	sw	a1,44(ra)
  58:	02c0a823          	sw	a2,48(ra)
  5c:	02d0aa23          	sw	a3,52(ra)
  60:	02e0ac23          	sw	a4,56(ra)
  64:	02f0ae23          	sw	a5,60(ra)
  68:	0500a023          	sw	a6,64(ra)
  6c:	0510a223          	sw	a7,68(ra)
  70:	0520a423          	sw	s2,72(ra)
  74:	0530a623          	sw	s3,76(ra)
  78:	0540a823          	sw	s4,80(ra)
  7c:	0550aa23          	sw	s5,84(ra)
  80:	0560ac23          	sw	s6,88(ra)
  84:	0570ae23          	sw	s7,92(ra)
  88:	0780a023          	sw	s8,96(ra)
  8c:	0790a223          	sw	s9,100(ra)
  90:	07a0a423          	sw	s10,104(ra)
  94:	07b0a623          	sw	s11,108(ra)
  98:	07c0a823          	sw	t3,112(ra)
  9c:	07d0aa23          	sw	t4,116(ra)
  a0:	07e0ac23          	sw	t5,120(ra)
  a4:	07f0ae23          	sw	t6,124(ra)
  a8:	3d400113          	li	sp,980
  ac:	15400513          	li	a0,340
  b0:	0000c58b          	.4byte	0xc58b
  b4:	3bc000ef          	jal	ra,470 <irq>
  b8:	00050093          	mv	ra,a0
  bc:	0000a103          	lw	sp,0(ra)
  c0:	0201200b          	.4byte	0x201200b
  c4:	0040a103          	lw	sp,4(ra)
  c8:	0201208b          	.4byte	0x201208b
  cc:	0080a103          	lw	sp,8(ra)
  d0:	0201210b          	.4byte	0x201210b
  d4:	00c0a183          	lw	gp,12(ra)
  d8:	0100a203          	lw	tp,16(ra)
  dc:	0140a283          	lw	t0,20(ra)
  e0:	0180a303          	lw	t1,24(ra)
  e4:	01c0a383          	lw	t2,28(ra)
  e8:	0200a403          	lw	s0,32(ra)
  ec:	0240a483          	lw	s1,36(ra)
  f0:	0280a503          	lw	a0,40(ra)
  f4:	02c0a583          	lw	a1,44(ra)
  f8:	0300a603          	lw	a2,48(ra)
  fc:	0340a683          	lw	a3,52(ra)
 100:	0380a703          	lw	a4,56(ra)
 104:	03c0a783          	lw	a5,60(ra)
 108:	0400a803          	lw	a6,64(ra)
 10c:	0440a883          	lw	a7,68(ra)
 110:	0480a903          	lw	s2,72(ra)
 114:	04c0a983          	lw	s3,76(ra)
 118:	0500aa03          	lw	s4,80(ra)
 11c:	0540aa83          	lw	s5,84(ra)
 120:	0580ab03          	lw	s6,88(ra)
 124:	05c0ab83          	lw	s7,92(ra)
 128:	0600ac03          	lw	s8,96(ra)
 12c:	0640ac83          	lw	s9,100(ra)
 130:	0680ad03          	lw	s10,104(ra)
 134:	06c0ad83          	lw	s11,108(ra)
 138:	0700ae03          	lw	t3,112(ra)
 13c:	0740ae83          	lw	t4,116(ra)
 140:	0780af03          	lw	t5,120(ra)
 144:	07c0af83          	lw	t6,124(ra)
 148:	0000c08b          	.4byte	0xc08b
 14c:	0001410b          	.4byte	0x1410b
 150:	0400000b          	.4byte	0x400000b

00000154 <irq_regs>:
	...

000003d4 <irq_stack>:
 3d4:	00000093          	li	ra,0
 3d8:	00000113          	li	sp,0
 3dc:	00000193          	li	gp,0
 3e0:	00000213          	li	tp,0
 3e4:	00000293          	li	t0,0
 3e8:	00000313          	li	t1,0
 3ec:	00000393          	li	t2,0
 3f0:	00000413          	li	s0,0
 3f4:	00000493          	li	s1,0
 3f8:	00000513          	li	a0,0
 3fc:	00000593          	li	a1,0
 400:	00000613          	li	a2,0
 404:	00000693          	li	a3,0
 408:	00000713          	li	a4,0
 40c:	00000793          	li	a5,0
 410:	00000813          	li	a6,0
 414:	00000893          	li	a7,0
 418:	00000913          	li	s2,0
 41c:	00000993          	li	s3,0
 420:	00000a13          	li	s4,0
 424:	00000a93          	li	s5,0
 428:	00000b13          	li	s6,0
 42c:	00000b93          	li	s7,0
 430:	00000c13          	li	s8,0
 434:	00000c93          	li	s9,0
 438:	00000d13          	li	s10,0
 43c:	00000d93          	li	s11,0
 440:	00000e13          	li	t3,0
 444:	00000e93          	li	t4,0
 448:	00000f13          	li	t5,0
 44c:	00000f93          	li	t6,0
 450:	00020137          	lui	sp,0x20
 454:	deadc1b7          	lui	gp,0xdeadc
 458:	eef18193          	addi	gp,gp,-273 # deadbeef <end+0xdeadb2bb>
 45c:	00018213          	mv	tp,gp
 460:	724000ef          	jal	ra,b84 <main>
 464:	00100073          	ebreak

00000468 <esns_nop>:
 468:	00000013          	nop
 46c:	00008067          	ret

00000470 <irq>:
 470:	fb010113          	addi	sp,sp,-80 # 1ffb0 <end+0x1f37c>
 474:	04812423          	sw	s0,72(sp)
 478:	03612823          	sw	s6,48(sp)
 47c:	03812423          	sw	s8,40(sp)
 480:	04112623          	sw	ra,76(sp)
 484:	04912223          	sw	s1,68(sp)
 488:	05212023          	sw	s2,64(sp)
 48c:	03312e23          	sw	s3,60(sp)
 490:	03412c23          	sw	s4,56(sp)
 494:	03512a23          	sw	s5,52(sp)
 498:	03712623          	sw	s7,44(sp)
 49c:	03912223          	sw	s9,36(sp)
 4a0:	03a12023          	sw	s10,32(sp)
 4a4:	01b12e23          	sw	s11,28(sp)
 4a8:	0065f413          	andi	s0,a1,6
 4ac:	00058b13          	mv	s6,a1
 4b0:	00050c13          	mv	s8,a0
 4b4:	08040063          	beqz	s0,534 <irq+0xc4>
 4b8:	00052703          	lw	a4,0(a0)
 4bc:	00300693          	li	a3,3
 4c0:	00177793          	andi	a5,a4,1
 4c4:	00e787b3          	add	a5,a5,a4
 4c8:	ffc7d483          	lhu	s1,-4(a5)
 4cc:	00177713          	andi	a4,a4,1
 4d0:	ffc78793          	addi	a5,a5,-4
 4d4:	0034f613          	andi	a2,s1,3
 4d8:	00060913          	mv	s2,a2
 4dc:	40d60c63          	beq	a2,a3,8f4 <irq+0x484>
 4e0:	ffd90793          	addi	a5,s2,-3
 4e4:	00f037b3          	snez	a5,a5
 4e8:	04e78663          	beq	a5,a4,534 <irq+0xc4>
 4ec:	00001537          	lui	a0,0x1
 4f0:	9e850513          	addi	a0,a0,-1560 # 9e8 <print_hex+0x50>
 4f4:	430000ef          	jal	ra,924 <print_str>
 4f8:	000c2503          	lw	a0,0(s8)
 4fc:	00800593          	li	a1,8
 500:	498000ef          	jal	ra,998 <print_hex>
 504:	00001537          	lui	a0,0x1
 508:	a2450513          	addi	a0,a0,-1500 # a24 <print_hex+0x8c>
 50c:	418000ef          	jal	ra,924 <print_str>
 510:	00300793          	li	a5,3
 514:	3ef90a63          	beq	s2,a5,908 <irq+0x498>
 518:	00400593          	li	a1,4
 51c:	00048513          	mv	a0,s1
 520:	478000ef          	jal	ra,998 <print_hex>
 524:	00001537          	lui	a0,0x1
 528:	a6c50513          	addi	a0,a0,-1428 # a6c <print_hex+0xd4>
 52c:	3f8000ef          	jal	ra,924 <print_str>
 530:	00100073          	ebreak
 534:	010b7793          	andi	a5,s6,16
 538:	00078a63          	beqz	a5,54c <irq+0xdc>
 53c:	00001737          	lui	a4,0x1
 540:	b5072783          	lw	a5,-1200(a4) # b50 <ext_irq_4_count.3>
 544:	00178793          	addi	a5,a5,1
 548:	b4f72823          	sw	a5,-1200(a4)
 54c:	020b7793          	andi	a5,s6,32
 550:	00078a63          	beqz	a5,564 <irq+0xf4>
 554:	00001737          	lui	a4,0x1
 558:	b4c72783          	lw	a5,-1204(a4) # b4c <ext_irq_5_count.2>
 55c:	00178793          	addi	a5,a5,1
 560:	b4f72623          	sw	a5,-1204(a4)
 564:	001b7793          	andi	a5,s6,1
 568:	00078a63          	beqz	a5,57c <irq+0x10c>
 56c:	00001737          	lui	a4,0x1
 570:	b4872783          	lw	a5,-1208(a4) # b48 <timer_irq_count.1>
 574:	00178793          	addi	a5,a5,1
 578:	b4f72423          	sw	a5,-1208(a4)
 57c:	1e040263          	beqz	s0,760 <irq+0x2f0>
 580:	000c2783          	lw	a5,0(s8)
 584:	00300713          	li	a4,3
 588:	002b7913          	andi	s2,s6,2
 58c:	0017f413          	andi	s0,a5,1
 590:	00f40433          	add	s0,s0,a5
 594:	ffc45483          	lhu	s1,-4(s0)
 598:	ffc40413          	addi	s0,s0,-4
 59c:	0034f793          	andi	a5,s1,3
 5a0:	2ae78263          	beq	a5,a4,844 <irq+0x3d4>
 5a4:	00001d37          	lui	s10,0x1
 5a8:	a6cd0513          	addi	a0,s10,-1428 # a6c <print_hex+0xd4>
 5ac:	378000ef          	jal	ra,924 <print_str>
 5b0:	000017b7          	lui	a5,0x1
 5b4:	a3078513          	addi	a0,a5,-1488 # a30 <print_hex+0x98>
 5b8:	00f12623          	sw	a5,12(sp)
 5bc:	368000ef          	jal	ra,924 <print_str>
 5c0:	04090c63          	beqz	s2,618 <irq+0x1a8>
 5c4:	000097b7          	lui	a5,0x9
 5c8:	00278793          	addi	a5,a5,2 # 9002 <end+0x83ce>
 5cc:	2af48a63          	beq	s1,a5,880 <irq+0x410>
 5d0:	00001537          	lui	a0,0x1
 5d4:	a8c50513          	addi	a0,a0,-1396 # a8c <print_hex+0xf4>
 5d8:	34c000ef          	jal	ra,924 <print_str>
 5dc:	00800593          	li	a1,8
 5e0:	00040513          	mv	a0,s0
 5e4:	3b4000ef          	jal	ra,998 <print_hex>
 5e8:	00001537          	lui	a0,0x1
 5ec:	aa850513          	addi	a0,a0,-1368 # aa8 <print_hex+0x110>
 5f0:	334000ef          	jal	ra,924 <print_str>
 5f4:	0034f793          	andi	a5,s1,3
 5f8:	00300713          	li	a4,3
 5fc:	00800593          	li	a1,8
 600:	00e78463          	beq	a5,a4,608 <irq+0x198>
 604:	00400593          	li	a1,4
 608:	00048513          	mv	a0,s1
 60c:	38c000ef          	jal	ra,998 <print_hex>
 610:	a6cd0513          	addi	a0,s10,-1428
 614:	310000ef          	jal	ra,924 <print_str>
 618:	004b7793          	andi	a5,s6,4
 61c:	28079663          	bnez	a5,8a8 <irq+0x438>
 620:	000017b7          	lui	a5,0x1
 624:	9e078793          	addi	a5,a5,-1568 # 9e0 <print_hex+0x48>
 628:	000c0a93          	mv	s5,s8
 62c:	00000913          	li	s2,0
 630:	00400993          	li	s3,4
 634:	00900a13          	li	s4,9
 638:	01300c93          	li	s9,19
 63c:	00f12423          	sw	a5,8(sp)
 640:	00090d93          	mv	s11,s2
 644:	000a8493          	mv	s1,s5
 648:	00000413          	li	s0,0
 64c:	01d00b93          	li	s7,29
 650:	060d8063          	beqz	s11,6b0 <irq+0x240>
 654:	07800513          	li	a0,120
 658:	15ba5863          	bge	s4,s11,7a8 <irq+0x338>
 65c:	1bbcd863          	bge	s9,s11,80c <irq+0x39c>
 660:	17bbcc63          	blt	s7,s11,7d8 <irq+0x368>
 664:	2b4000ef          	jal	ra,918 <print_chr>
 668:	03200513          	li	a0,50
 66c:	2ac000ef          	jal	ra,918 <print_chr>
 670:	01cd8513          	addi	a0,s11,28
 674:	0ff57513          	zext.b	a0,a0
 678:	2a0000ef          	jal	ra,918 <print_chr>
 67c:	02000513          	li	a0,32
 680:	298000ef          	jal	ra,918 <print_chr>
 684:	0004a503          	lw	a0,0(s1)
 688:	00800593          	li	a1,8
 68c:	30c000ef          	jal	ra,998 <print_hex>
 690:	00300713          	li	a4,3
 694:	18e40863          	beq	s0,a4,824 <irq+0x3b4>
 698:	00812503          	lw	a0,8(sp)
 69c:	008d8d93          	addi	s11,s11,8
 6a0:	00140413          	addi	s0,s0,1
 6a4:	280000ef          	jal	ra,924 <print_str>
 6a8:	02048493          	addi	s1,s1,32
 6ac:	fa0d94e3          	bnez	s11,654 <irq+0x1e4>
 6b0:	000017b7          	lui	a5,0x1
 6b4:	ad078513          	addi	a0,a5,-1328 # ad0 <print_hex+0x138>
 6b8:	26c000ef          	jal	ra,924 <print_str>
 6bc:	000c2503          	lw	a0,0(s8)
 6c0:	00800593          	li	a1,8
 6c4:	2d4000ef          	jal	ra,998 <print_hex>
 6c8:	00812503          	lw	a0,8(sp)
 6cc:	00140413          	addi	s0,s0,1
 6d0:	254000ef          	jal	ra,924 <print_str>
 6d4:	008d8d93          	addi	s11,s11,8
 6d8:	02048493          	addi	s1,s1,32
 6dc:	f7341ae3          	bne	s0,s3,650 <irq+0x1e0>
 6e0:	00190913          	addi	s2,s2,1
 6e4:	00800793          	li	a5,8
 6e8:	004a8a93          	addi	s5,s5,4
 6ec:	f4f91ae3          	bne	s2,a5,640 <irq+0x1d0>
 6f0:	00c12783          	lw	a5,12(sp)
 6f4:	a3078513          	addi	a0,a5,-1488
 6f8:	22c000ef          	jal	ra,924 <print_str>
 6fc:	00001537          	lui	a0,0x1
 700:	ad850513          	addi	a0,a0,-1320 # ad8 <print_hex+0x140>
 704:	220000ef          	jal	ra,924 <print_str>
 708:	000017b7          	lui	a5,0x1
 70c:	b507a503          	lw	a0,-1200(a5) # b50 <ext_irq_4_count.3>
 710:	234000ef          	jal	ra,944 <print_dec>
 714:	a6cd0513          	addi	a0,s10,-1428
 718:	20c000ef          	jal	ra,924 <print_str>
 71c:	00001537          	lui	a0,0x1
 720:	b0050513          	addi	a0,a0,-1280 # b00 <print_hex+0x168>
 724:	200000ef          	jal	ra,924 <print_str>
 728:	000017b7          	lui	a5,0x1
 72c:	b4c7a503          	lw	a0,-1204(a5) # b4c <ext_irq_5_count.2>
 730:	214000ef          	jal	ra,944 <print_dec>
 734:	a6cd0513          	addi	a0,s10,-1428
 738:	1ec000ef          	jal	ra,924 <print_str>
 73c:	00001537          	lui	a0,0x1
 740:	b2850513          	addi	a0,a0,-1240 # b28 <print_hex+0x190>
 744:	1e0000ef          	jal	ra,924 <print_str>
 748:	000017b7          	lui	a5,0x1
 74c:	b487a503          	lw	a0,-1208(a5) # b48 <timer_irq_count.1>
 750:	1f4000ef          	jal	ra,944 <print_dec>
 754:	a6cd0513          	addi	a0,s10,-1428
 758:	1cc000ef          	jal	ra,924 <print_str>
 75c:	00100073          	ebreak
 760:	100b7b13          	andi	s6,s6,256
 764:	0c0b1663          	bnez	s6,830 <irq+0x3c0>
 768:	04c12083          	lw	ra,76(sp)
 76c:	04812403          	lw	s0,72(sp)
 770:	04412483          	lw	s1,68(sp)
 774:	04012903          	lw	s2,64(sp)
 778:	03c12983          	lw	s3,60(sp)
 77c:	03812a03          	lw	s4,56(sp)
 780:	03412a83          	lw	s5,52(sp)
 784:	03012b03          	lw	s6,48(sp)
 788:	02c12b83          	lw	s7,44(sp)
 78c:	02412c83          	lw	s9,36(sp)
 790:	02012d03          	lw	s10,32(sp)
 794:	01c12d83          	lw	s11,28(sp)
 798:	000c0513          	mv	a0,s8
 79c:	02812c03          	lw	s8,40(sp)
 7a0:	05010113          	addi	sp,sp,80
 7a4:	00008067          	ret
 7a8:	170000ef          	jal	ra,918 <print_chr>
 7ac:	030d8513          	addi	a0,s11,48
 7b0:	0ff57513          	zext.b	a0,a0
 7b4:	164000ef          	jal	ra,918 <print_chr>
 7b8:	02000513          	li	a0,32
 7bc:	15c000ef          	jal	ra,918 <print_chr>
 7c0:	02000513          	li	a0,32
 7c4:	154000ef          	jal	ra,918 <print_chr>
 7c8:	0004a503          	lw	a0,0(s1)
 7cc:	00800593          	li	a1,8
 7d0:	1c8000ef          	jal	ra,998 <print_hex>
 7d4:	ef5ff06f          	j	6c8 <irq+0x258>
 7d8:	140000ef          	jal	ra,918 <print_chr>
 7dc:	03300513          	li	a0,51
 7e0:	138000ef          	jal	ra,918 <print_chr>
 7e4:	012d8513          	addi	a0,s11,18
 7e8:	0ff57513          	zext.b	a0,a0
 7ec:	12c000ef          	jal	ra,918 <print_chr>
 7f0:	02000513          	li	a0,32
 7f4:	124000ef          	jal	ra,918 <print_chr>
 7f8:	0004a503          	lw	a0,0(s1)
 7fc:	00800593          	li	a1,8
 800:	198000ef          	jal	ra,998 <print_hex>
 804:	a6cd0513          	addi	a0,s10,-1428
 808:	ec5ff06f          	j	6cc <irq+0x25c>
 80c:	10c000ef          	jal	ra,918 <print_chr>
 810:	03100513          	li	a0,49
 814:	104000ef          	jal	ra,918 <print_chr>
 818:	026d8513          	addi	a0,s11,38
 81c:	0ff57513          	zext.b	a0,a0
 820:	f9dff06f          	j	7bc <irq+0x34c>
 824:	a6cd0513          	addi	a0,s10,-1428
 828:	0fc000ef          	jal	ra,924 <print_str>
 82c:	eb5ff06f          	j	6e0 <irq+0x270>
 830:	800007b7          	lui	a5,0x80000
 834:	0047a503          	lw	a0,4(a5) # 80000004 <end+0x7ffff3d0>
 838:	0ff57513          	zext.b	a0,a0
 83c:	0dc000ef          	jal	ra,918 <print_chr>
 840:	f29ff06f          	j	768 <irq+0x2f8>
 844:	00245783          	lhu	a5,2(s0)
 848:	00001d37          	lui	s10,0x1
 84c:	a6cd0513          	addi	a0,s10,-1428 # a6c <print_hex+0xd4>
 850:	01079793          	slli	a5,a5,0x10
 854:	00f4e4b3          	or	s1,s1,a5
 858:	000017b7          	lui	a5,0x1
 85c:	00078993          	mv	s3,a5
 860:	00f12623          	sw	a5,12(sp)
 864:	0c0000ef          	jal	ra,924 <print_str>
 868:	a3098513          	addi	a0,s3,-1488
 86c:	0b8000ef          	jal	ra,924 <print_str>
 870:	da0904e3          	beqz	s2,618 <irq+0x1a8>
 874:	001007b7          	lui	a5,0x100
 878:	07378793          	addi	a5,a5,115 # 100073 <end+0xff43f>
 87c:	d4f494e3          	bne	s1,a5,5c4 <irq+0x154>
 880:	00001537          	lui	a0,0x1
 884:	a7050513          	addi	a0,a0,-1424 # a70 <print_hex+0xd8>
 888:	09c000ef          	jal	ra,924 <print_str>
 88c:	00040513          	mv	a0,s0
 890:	00800593          	li	a1,8
 894:	104000ef          	jal	ra,998 <print_hex>
 898:	a6cd0513          	addi	a0,s10,-1428
 89c:	088000ef          	jal	ra,924 <print_str>
 8a0:	004b7793          	andi	a5,s6,4
 8a4:	d6078ee3          	beqz	a5,620 <irq+0x1b0>
 8a8:	00001537          	lui	a0,0x1
 8ac:	ab050513          	addi	a0,a0,-1360 # ab0 <print_hex+0x118>
 8b0:	074000ef          	jal	ra,924 <print_str>
 8b4:	00800593          	li	a1,8
 8b8:	00040513          	mv	a0,s0
 8bc:	0dc000ef          	jal	ra,998 <print_hex>
 8c0:	00001537          	lui	a0,0x1
 8c4:	aa850513          	addi	a0,a0,-1368 # aa8 <print_hex+0x110>
 8c8:	05c000ef          	jal	ra,924 <print_str>
 8cc:	0034f793          	andi	a5,s1,3
 8d0:	00300713          	li	a4,3
 8d4:	00800593          	li	a1,8
 8d8:	00e78463          	beq	a5,a4,8e0 <irq+0x470>
 8dc:	00400593          	li	a1,4
 8e0:	00048513          	mv	a0,s1
 8e4:	0b4000ef          	jal	ra,998 <print_hex>
 8e8:	a6cd0513          	addi	a0,s10,-1428
 8ec:	038000ef          	jal	ra,924 <print_str>
 8f0:	d31ff06f          	j	620 <irq+0x1b0>
 8f4:	0027d783          	lhu	a5,2(a5)
 8f8:	01079793          	slli	a5,a5,0x10
 8fc:	00f4e4b3          	or	s1,s1,a5
 900:	0034f913          	andi	s2,s1,3
 904:	bddff06f          	j	4e0 <irq+0x70>
 908:	00800593          	li	a1,8
 90c:	00048513          	mv	a0,s1
 910:	088000ef          	jal	ra,998 <print_hex>
 914:	c11ff06f          	j	524 <irq+0xb4>

00000918 <print_chr>:
 918:	800007b7          	lui	a5,0x80000
 91c:	00a7a023          	sw	a0,0(a5) # 80000000 <end+0x7ffff3cc>
 920:	00008067          	ret

00000924 <print_str>:
 924:	00054783          	lbu	a5,0(a0)
 928:	00078c63          	beqz	a5,940 <print_str+0x1c>
 92c:	80000737          	lui	a4,0x80000
 930:	00150513          	addi	a0,a0,1
 934:	00f72023          	sw	a5,0(a4) # 80000000 <end+0x7ffff3cc>
 938:	00054783          	lbu	a5,0(a0)
 93c:	fe079ae3          	bnez	a5,930 <print_str+0xc>
 940:	00008067          	ret

00000944 <print_dec>:
 944:	ff010113          	addi	sp,sp,-16
 948:	00410613          	addi	a2,sp,4
 94c:	00060793          	mv	a5,a2
 950:	00a00713          	li	a4,10
 954:	00051463          	bnez	a0,95c <print_dec+0x18>
 958:	00c79c63          	bne	a5,a2,970 <print_dec+0x2c>
 95c:	02e576b3          	remu	a3,a0,a4
 960:	00178793          	addi	a5,a5,1
 964:	02e55533          	divu	a0,a0,a4
 968:	fed78fa3          	sb	a3,-1(a5)
 96c:	fe9ff06f          	j	954 <print_dec+0x10>
 970:	800006b7          	lui	a3,0x80000
 974:	fff7c703          	lbu	a4,-1(a5)
 978:	fff78793          	addi	a5,a5,-1
 97c:	03070713          	addi	a4,a4,48
 980:	00e6a023          	sw	a4,0(a3) # 80000000 <end+0x7ffff3cc>
 984:	fec798e3          	bne	a5,a2,974 <print_dec+0x30>
 988:	00a00793          	li	a5,10
 98c:	00f6a023          	sw	a5,0(a3)
 990:	01010113          	addi	sp,sp,16
 994:	00008067          	ret

00000998 <print_hex>:
 998:	fff58593          	addi	a1,a1,-1
 99c:	00259593          	slli	a1,a1,0x2
 9a0:	0205c863          	bltz	a1,9d0 <print_hex+0x38>
 9a4:	00001737          	lui	a4,0x1
 9a8:	bc470713          	addi	a4,a4,-1084 # bc4 <message+0x24>
 9ac:	80000637          	lui	a2,0x80000
 9b0:	ffc00693          	li	a3,-4
 9b4:	00b557b3          	srl	a5,a0,a1
 9b8:	00f7f793          	andi	a5,a5,15
 9bc:	00f707b3          	add	a5,a4,a5
 9c0:	0007c783          	lbu	a5,0(a5)
 9c4:	ffc58593          	addi	a1,a1,-4
 9c8:	00f62023          	sw	a5,0(a2) # 80000000 <end+0x7ffff3cc>
 9cc:	fed594e3          	bne	a1,a3,9b4 <print_hex+0x1c>
 9d0:	800007b7          	lui	a5,0x80000
 9d4:	00a00713          	li	a4,10
 9d8:	00e7a023          	sw	a4,0(a5) # 80000000 <end+0x7ffff3cc>
 9dc:	00008067          	ret
 9e0:	2020                	fld	fs0,64(s0)
 9e2:	2020                	fld	fs0,64(s0)
 9e4:	0000                	unimp
 9e6:	0000                	unimp
 9e8:	694d                	lui	s2,0x13
 9ea:	74616d73          	csrrsi	s10,0x746,2
 9ee:	62206863          	bltu	zero,sp,101e <end+0x3ea>
 9f2:	7465                	lui	s0,0xffff9
 9f4:	6e656577          	.4byte	0x6e656577
 9f8:	7120                	flw	fs0,96(a0)
 9fa:	2030                	fld	fa2,64(s0)
 9fc:	534c                	lw	a1,36(a4)
 9fe:	2042                	fld	ft0,16(sp)
 a00:	6e61                	lui	t3,0x18
 a02:	2064                	fld	fs1,192(s0)
 a04:	6564                	flw	fs1,76(a0)
 a06:	65646f63          	bltu	s0,s6,1064 <end+0x430>
 a0a:	2064                	fld	fs1,192(s0)
 a0c:	6e69                	lui	t3,0x1a
 a0e:	75727473          	csrrci	s0,mseccfgh,4
 a12:	6f697463          	bgeu	s2,s6,10fa <end+0x4c6>
 a16:	206e                	fld	ft0,216(sp)
 a18:	64726f77          	.4byte	0x64726f77
 a1c:	2021                	jal	a24 <print_hex+0x8c>
 a1e:	3071                	jal	2aa <irq_regs+0x156>
 a20:	303d                	jal	24e <irq_regs+0xfa>
 a22:	0078                	addi	a4,sp,12
 a24:	202c                	fld	fa1,64(s0)
 a26:	6e69                	lui	t3,0x1a
 a28:	3d727473          	csrrci	s0,pmpaddr39,4
 a2c:	7830                	flw	fa2,112(s0)
 a2e:	0000                	unimp
 a30:	2d2d                	jal	106a <end+0x436>
 a32:	2d2d                	jal	106c <end+0x438>
 a34:	2d2d                	jal	106e <end+0x43a>
 a36:	2d2d                	jal	1070 <end+0x43c>
 a38:	2d2d                	jal	1072 <end+0x43e>
 a3a:	2d2d                	jal	1074 <end+0x440>
 a3c:	2d2d                	jal	1076 <end+0x442>
 a3e:	2d2d                	jal	1078 <end+0x444>
 a40:	2d2d                	jal	107a <end+0x446>
 a42:	2d2d                	jal	107c <end+0x448>
 a44:	2d2d                	jal	107e <end+0x44a>
 a46:	2d2d                	jal	1080 <end+0x44c>
 a48:	2d2d                	jal	1082 <end+0x44e>
 a4a:	2d2d                	jal	1084 <end+0x450>
 a4c:	2d2d                	jal	1086 <end+0x452>
 a4e:	2d2d                	jal	1088 <end+0x454>
 a50:	2d2d                	jal	108a <end+0x456>
 a52:	2d2d                	jal	108c <end+0x458>
 a54:	2d2d                	jal	108e <end+0x45a>
 a56:	2d2d                	jal	1090 <end+0x45c>
 a58:	2d2d                	jal	1092 <end+0x45e>
 a5a:	2d2d                	jal	1094 <end+0x460>
 a5c:	2d2d                	jal	1096 <end+0x462>
 a5e:	2d2d                	jal	1098 <end+0x464>
 a60:	2d2d                	jal	109a <end+0x466>
 a62:	2d2d                	jal	109c <end+0x468>
 a64:	2d2d                	jal	109e <end+0x46a>
 a66:	2d2d                	jal	10a0 <end+0x46c>
 a68:	2d2d                	jal	10a2 <end+0x46e>
 a6a:	2d2d                	jal	10a4 <end+0x470>
 a6c:	000a                	c.slli	zero,0x2
 a6e:	0000                	unimp
 a70:	4245                	li	tp,17
 a72:	4552                	lw	a0,20(sp)
 a74:	4b41                	li	s6,16
 a76:	6920                	flw	fs0,80(a0)
 a78:	736e                	flw	ft6,248(sp)
 a7a:	7274                	flw	fa3,100(a2)
 a7c:	6375                	lui	t1,0x1d
 a7e:	6974                	flw	fa3,84(a0)
 a80:	61206e6f          	jal	t3,7092 <end+0x645e>
 a84:	2074                	fld	fa3,192(s0)
 a86:	7830                	flw	fa2,112(s0)
 a88:	0000                	unimp
 a8a:	0000                	unimp
 a8c:	6c49                	lui	s8,0x12
 a8e:	656c                	flw	fa1,76(a0)
 a90:	206c6167          	.4byte	0x206c6167
 a94:	6e49                	lui	t3,0x12
 a96:	75727473          	csrrci	s0,mseccfgh,4
 a9a:	6f697463          	bgeu	s2,s6,1182 <end+0x54e>
 a9e:	206e                	fld	ft0,216(sp)
 aa0:	7461                	lui	s0,0xffff8
 aa2:	3020                	fld	fs0,96(s0)
 aa4:	0078                	addi	a4,sp,12
 aa6:	0000                	unimp
 aa8:	203a                	fld	ft0,392(sp)
 aaa:	7830                	flw	fa2,112(s0)
 aac:	0000                	unimp
 aae:	0000                	unimp
 ab0:	7542                	flw	fa0,48(sp)
 ab2:	72652073          	csrs	mhpmevent6h,a0
 ab6:	6f72                	flw	ft10,28(sp)
 ab8:	2072                	fld	ft0,280(sp)
 aba:	6e69                	lui	t3,0x1a
 abc:	4920                	lw	s0,80(a0)
 abe:	736e                	flw	ft6,248(sp)
 ac0:	7274                	flw	fa3,100(a2)
 ac2:	6375                	lui	t1,0x1d
 ac4:	6974                	flw	fa3,84(a0)
 ac6:	61206e6f          	jal	t3,70d8 <end+0x64a4>
 aca:	2074                	fld	fa3,192(s0)
 acc:	7830                	flw	fa2,112(s0)
 ace:	0000                	unimp
 ad0:	6370                	flw	fa2,68(a4)
 ad2:	2020                	fld	fs0,64(s0)
 ad4:	0000                	unimp
 ad6:	0000                	unimp
 ad8:	754e                	flw	fa0,240(sp)
 ada:	626d                	lui	tp,0x1b
 adc:	7265                	lui	tp,0xffff9
 ade:	6f20                	flw	fs0,88(a4)
 ae0:	2066                	fld	ft0,88(sp)
 ae2:	6166                	flw	ft2,88(sp)
 ae4:	65207473          	csrrci	s0,0x652,0
 ae8:	7478                	flw	fa4,108(s0)
 aea:	7265                	lui	tp,0xffff9
 aec:	616e                	flw	ft2,216(sp)
 aee:	206c                	fld	fa1,192(s0)
 af0:	5249                	li	tp,-14
 af2:	7351                	lui	t1,0xffff4
 af4:	6320                	flw	fs0,64(a4)
 af6:	746e756f          	jal	a0,e823c <end+0xe7608>
 afa:	6465                	lui	s0,0x19
 afc:	203a                	fld	ft0,392(sp)
 afe:	0000                	unimp
 b00:	754e                	flw	fa0,240(sp)
 b02:	626d                	lui	tp,0x1b
 b04:	7265                	lui	tp,0xffff9
 b06:	6f20                	flw	fs0,88(a4)
 b08:	2066                	fld	ft0,88(sp)
 b0a:	776f6c73          	csrrsi	s8,0x776,30
 b0e:	6520                	flw	fs0,72(a0)
 b10:	7478                	flw	fa4,108(s0)
 b12:	7265                	lui	tp,0xffff9
 b14:	616e                	flw	ft2,216(sp)
 b16:	206c                	fld	fa1,192(s0)
 b18:	5249                	li	tp,-14
 b1a:	7351                	lui	t1,0xffff4
 b1c:	6320                	flw	fs0,64(a4)
 b1e:	746e756f          	jal	a0,e8264 <end+0xe7630>
 b22:	6465                	lui	s0,0x19
 b24:	203a                	fld	ft0,392(sp)
 b26:	0000                	unimp
 b28:	754e                	flw	fa0,240(sp)
 b2a:	626d                	lui	tp,0x1b
 b2c:	7265                	lui	tp,0xffff9
 b2e:	6f20                	flw	fs0,88(a4)
 b30:	2066                	fld	ft0,88(sp)
 b32:	6974                	flw	fa3,84(a0)
 b34:	656d                	lui	a0,0x1b
 b36:	2072                	fld	ft0,280(sp)
 b38:	5249                	li	tp,-14
 b3a:	7351                	lui	t1,0xffff4
 b3c:	6320                	flw	fs0,64(a4)
 b3e:	746e756f          	jal	a0,e8284 <end+0xe7650>
 b42:	6465                	lui	s0,0x19
 b44:	203a                	fld	ft0,392(sp)
	...

00000b48 <timer_irq_count.1>:
 b48:	0000                	unimp
	...

00000b4c <ext_irq_5_count.2>:
 b4c:	0000                	unimp
	...

00000b50 <ext_irq_4_count.3>:
 b50:	0000                	unimp
 b52:	0000                	unimp
 b54:	3a434347          	fmsub.d	ft6,ft6,ft4,ft7,rmm
 b58:	2820                	fld	fs0,80(s0)
 b5a:	2029                	jal	b64 <ext_irq_4_count.3+0x14>
 b5c:	3231                	jal	468 <esns_nop>
 b5e:	322e                	fld	ft4,232(sp)
 b60:	302e                	fld	ft0,232(sp)
 b62:	4100                	lw	s0,0(a0)
 b64:	0020                	addi	s0,sp,8
 b66:	0000                	unimp
 b68:	6972                	flw	fs2,28(sp)
 b6a:	00766373          	csrrsi	t1,0x7,12
 b6e:	1601                	addi	a2,a2,-32
 b70:	0000                	unimp
 b72:	0400                	addi	s0,sp,512
 b74:	0510                	addi	a2,sp,640
 b76:	7672                	flw	fa2,60(sp)
 b78:	32693233          	.4byte	0x32693233
 b7c:	3070                	fld	fa2,224(s0)
 b7e:	6d5f 7032 0030      	.byte	0x5f, 0x6d, 0x32, 0x70, 0x30, 0x00

00000b84 <main>:
 b84:	ff010113          	addi	sp,sp,-16
 b88:	00812423          	sw	s0,8(sp)
 b8c:	00112623          	sw	ra,12(sp)
 b90:	00001437          	lui	s0,0x1
 b94:	ba044503          	lbu	a0,-1120(s0) # ba0 <message>
 b98:	d81ff0ef          	jal	ra,918 <print_chr>
 b9c:	ff9ff06f          	j	b94 <main+0x10>

00000ba0 <message>:
 ba0:	412a                	lw	sp,136(sp)
 ba2:	0020                	addi	s0,sp,8
 ba4:	0000                	unimp
 ba6:	6972                	flw	fs2,28(sp)
 ba8:	00766373          	csrrsi	t1,0x7,12
 bac:	1601                	addi	a2,a2,-32
 bae:	0000                	unimp
 bb0:	0400                	addi	s0,sp,512
 bb2:	0510                	addi	a2,sp,640
 bb4:	7672                	flw	fa2,60(sp)
 bb6:	32693233          	.4byte	0x32693233
 bba:	3070                	fld	fa2,224(s0)
 bbc:	6d5f 7032 0030      	.byte	0x5f, 0x6d, 0x32, 0x70, 0x30, 0x00
 bc2:	0000                	unimp
 bc4:	3130                	fld	fa2,96(a0)
 bc6:	3332                	fld	ft6,296(sp)
 bc8:	3534                	fld	fa3,104(a0)
 bca:	3736                	fld	fa4,360(sp)
 bcc:	3938                	fld	fa4,112(a0)
 bce:	4241                	li	tp,16
 bd0:	46454443          	.4byte	0x46454443
 bd4:	4100                	lw	s0,0(a0)
 bd6:	0020                	addi	s0,sp,8
 bd8:	0000                	unimp
 bda:	6972                	flw	fs2,28(sp)
 bdc:	00766373          	csrrsi	t1,0x7,12
 be0:	1601                	addi	a2,a2,-32
 be2:	0000                	unimp
 be4:	0400                	addi	s0,sp,512
 be6:	0510                	addi	a2,sp,640
 be8:	7672                	flw	fa2,60(sp)
 bea:	32693233          	.4byte	0x32693233
 bee:	3070                	fld	fa2,224(s0)
 bf0:	6d5f 7032 0030      	.byte	0x5f, 0x6d, 0x32, 0x70, 0x30, 0x00
 bf6:	1e41                	addi	t3,t3,-16 # 19ff0 <end+0x193bc>
 bf8:	0000                	unimp
 bfa:	7200                	flw	fs0,32(a2)
 bfc:	7369                	lui	t1,0xffffa
 bfe:	01007663          	bgeu	zero,a6,c0a <message+0x6a>
 c02:	0014                	.2byte	0x14
 c04:	0000                	unimp
 c06:	7205                	lui	tp,0xfffe1
 c08:	3376                	fld	ft6,376(sp)
 c0a:	6932                	flw	fs2,12(sp)
 c0c:	7032                	flw	ft0,44(sp)
 c0e:	5f30                	lw	a2,120(a4)
 c10:	326d                	jal	5ba <irq+0x14a>
 c12:	3070                	fld	fa2,224(s0)
 c14:	4100                	lw	s0,0(a0)
 c16:	001e                	c.slli	zero,0x7
 c18:	0000                	unimp
 c1a:	6972                	flw	fs2,28(sp)
 c1c:	00766373          	csrrsi	t1,0x7,12
 c20:	1401                	addi	s0,s0,-32
 c22:	0000                	unimp
 c24:	0500                	addi	s0,sp,640
 c26:	7672                	flw	fa2,60(sp)
 c28:	32693233          	.4byte	0x32693233
 c2c:	3070                	fld	fa2,224(s0)
 c2e:	6d5f 7032 0030      	.byte	0x5f, 0x6d, 0x32, 0x70, 0x30, 0x00
