
firmware.elf:     file format elf32-littleriscv


Disassembly of section .memory:

00000000 <start>:
   0:	00000093          	li	ra,0
   4:	00000113          	li	sp,0
   8:	00000193          	li	gp,0
   c:	00000213          	li	tp,0
  10:	00000293          	li	t0,0
  14:	00000313          	li	t1,0
  18:	00000393          	li	t2,0
  1c:	00000413          	li	s0,0
  20:	00000493          	li	s1,0
  24:	00000513          	li	a0,0
  28:	00000593          	li	a1,0
  2c:	00000613          	li	a2,0
  30:	00000693          	li	a3,0
  34:	00000713          	li	a4,0
  38:	00000793          	li	a5,0
  3c:	00000813          	li	a6,0
  40:	00000893          	li	a7,0
  44:	00000913          	li	s2,0
  48:	00000993          	li	s3,0
  4c:	00000a13          	li	s4,0
  50:	00000a93          	li	s5,0
  54:	00000b13          	li	s6,0
  58:	00000b93          	li	s7,0
  5c:	00000c13          	li	s8,0
  60:	00000c93          	li	s9,0
  64:	00000d13          	li	s10,0
  68:	00000d93          	li	s11,0
  6c:	00000e13          	li	t3,0
  70:	00000e93          	li	t4,0
  74:	00000f13          	li	t5,0
  78:	00000f93          	li	t6,0
  7c:	608000ef          	jal	ra,684 <main>
  80:	00100073          	ebreak

00000084 <pc>:
  84:	5e400793          	li	a5,1508
  88:	00c787b3          	add	a5,a5,a2
  8c:	40b787b3          	sub	a5,a5,a1
  90:	00c7c703          	lbu	a4,12(a5)
  94:	02452783          	lw	a5,36(a0)
  98:	00e7c7b3          	xor	a5,a5,a4
  9c:	02f52223          	sw	a5,36(a0)
  a0:	00008067          	ret

000000a4 <ps>:
  a4:	00000613          	li	a2,0
  a8:	800008b7          	lui	a7,0x80000
  ac:	01f00313          	li	t1,31
  b0:	5e400593          	li	a1,1508
  b4:	fff00e13          	li	t3,-1
  b8:	02000813          	li	a6,32
  bc:	00052783          	lw	a5,0(a0)
  c0:	00852e83          	lw	t4,8(a0)
  c4:	00c8d733          	srl	a4,a7,a2
  c8:	40c306b3          	sub	a3,t1,a2
  cc:	00f777b3          	and	a5,a4,a5
  d0:	01d77eb3          	and	t4,a4,t4
  d4:	00d7d7b3          	srl	a5,a5,a3
  d8:	00dedeb3          	srl	t4,t4,a3
  dc:	003e9e93          	slli	t4,t4,0x3
  e0:	00479793          	slli	a5,a5,0x4
  e4:	01d7e7b3          	or	a5,a5,t4
  e8:	02052e83          	lw	t4,32(a0)
  ec:	00c52f03          	lw	t5,12(a0)
  f0:	00400f93          	li	t6,4
  f4:	01d77eb3          	and	t4,a4,t4
  f8:	00dedeb3          	srl	t4,t4,a3
  fc:	01d7e7b3          	or	a5,a5,t4
 100:	01052e83          	lw	t4,16(a0)
 104:	01e77f33          	and	t5,a4,t5
 108:	00df5f33          	srl	t5,t5,a3
 10c:	01d77eb3          	and	t4,a4,t4
 110:	00dedeb3          	srl	t4,t4,a3
 114:	002e9e93          	slli	t4,t4,0x2
 118:	01d7e7b3          	or	a5,a5,t4
 11c:	01852e83          	lw	t4,24(a0)
 120:	003f1f13          	slli	t5,t5,0x3
 124:	01d77eb3          	and	t4,a4,t4
 128:	00dedeb3          	srl	t4,t4,a3
 12c:	001e9e93          	slli	t4,t4,0x1
 130:	01d7e7b3          	or	a5,a5,t4
 134:	0ff7f793          	zext.b	a5,a5
 138:	00f587b3          	add	a5,a1,a5
 13c:	00c7ce83          	lbu	t4,12(a5)
 140:	00452783          	lw	a5,4(a0)
 144:	00f777b3          	and	a5,a4,a5
 148:	00d7d7b3          	srl	a5,a5,a3
 14c:	00479793          	slli	a5,a5,0x4
 150:	01e7e7b3          	or	a5,a5,t5
 154:	02452f03          	lw	t5,36(a0)
 158:	01e77f33          	and	t5,a4,t5
 15c:	00df5f33          	srl	t5,t5,a3
 160:	01e7e7b3          	or	a5,a5,t5
 164:	01452f03          	lw	t5,20(a0)
 168:	01e77f33          	and	t5,a4,t5
 16c:	00df5f33          	srl	t5,t5,a3
 170:	002f1f13          	slli	t5,t5,0x2
 174:	01e7e7b3          	or	a5,a5,t5
 178:	01c52f03          	lw	t5,28(a0)
 17c:	01e77f33          	and	t5,a4,t5
 180:	00df5f33          	srl	t5,t5,a3
 184:	001f1f13          	slli	t5,t5,0x1
 188:	01e7e7b3          	or	a5,a5,t5
 18c:	0ff7f793          	zext.b	a5,a5
 190:	00f587b3          	add	a5,a1,a5
 194:	00c7c383          	lbu	t2,12(a5)
 198:	00050f13          	mv	t5,a0
 19c:	fff74713          	not	a4,a4
 1a0:	000f2283          	lw	t0,0(t5)
 1a4:	41fed7b3          	sra	a5,t4,t6
 1a8:	0017f793          	andi	a5,a5,1
 1ac:	005772b3          	and	t0,a4,t0
 1b0:	00d797b3          	sll	a5,a5,a3
 1b4:	0057e7b3          	or	a5,a5,t0
 1b8:	004f2283          	lw	t0,4(t5)
 1bc:	00ff2023          	sw	a5,0(t5)
 1c0:	41f3d7b3          	sra	a5,t2,t6
 1c4:	0017f793          	andi	a5,a5,1
 1c8:	00d797b3          	sll	a5,a5,a3
 1cc:	005772b3          	and	t0,a4,t0
 1d0:	0057e7b3          	or	a5,a5,t0
 1d4:	00ff2223          	sw	a5,4(t5)
 1d8:	ffff8f93          	addi	t6,t6,-1
 1dc:	008f0f13          	addi	t5,t5,8
 1e0:	fdcf90e3          	bne	t6,t3,1a0 <ps+0xfc>
 1e4:	00160613          	addi	a2,a2,1
 1e8:	ed061ae3          	bne	a2,a6,bc <ps+0x18>
 1ec:	00008067          	ret

000001f0 <pl>:
 1f0:	00052703          	lw	a4,0(a0)
 1f4:	fb010113          	addi	sp,sp,-80
 1f8:	00012423          	sw	zero,8(sp)
 1fc:	01375793          	srli	a5,a4,0x13
 200:	00f12023          	sw	a5,0(sp)
 204:	00452783          	lw	a5,4(a0)
 208:	00d71613          	slli	a2,a4,0xd
 20c:	02012823          	sw	zero,48(sp)
 210:	0137d693          	srli	a3,a5,0x13
 214:	00c6e6b3          	or	a3,a3,a2
 218:	00d12223          	sw	a3,4(sp)
 21c:	01c7d793          	srli	a5,a5,0x1c
 220:	01c75693          	srli	a3,a4,0x1c
 224:	00471713          	slli	a4,a4,0x4
 228:	00e7e7b3          	or	a5,a5,a4
 22c:	00852703          	lw	a4,8(a0)
 230:	02f12623          	sw	a5,44(sp)
 234:	00c52783          	lw	a5,12(a0)
 238:	01d75713          	srli	a4,a4,0x1d
 23c:	00e12623          	sw	a4,12(sp)
 240:	01052703          	lw	a4,16(a0)
 244:	0077d793          	srli	a5,a5,0x7
 248:	02f12a23          	sw	a5,52(sp)
 24c:	00175793          	srli	a5,a4,0x1
 250:	00f12823          	sw	a5,16(sp)
 254:	01452783          	lw	a5,20(a0)
 258:	01f71613          	slli	a2,a4,0x1f
 25c:	02d12423          	sw	a3,40(sp)
 260:	0017d693          	srli	a3,a5,0x1
 264:	00c6e6b3          	or	a3,a3,a2
 268:	00d12a23          	sw	a3,20(sp)
 26c:	0067d793          	srli	a5,a5,0x6
 270:	00675693          	srli	a3,a4,0x6
 274:	01a71713          	slli	a4,a4,0x1a
 278:	00e7e7b3          	or	a5,a5,a4
 27c:	01852703          	lw	a4,24(a0)
 280:	02f12e23          	sw	a5,60(sp)
 284:	02d12c23          	sw	a3,56(sp)
 288:	00a75793          	srli	a5,a4,0xa
 28c:	00f12c23          	sw	a5,24(sp)
 290:	01c52783          	lw	a5,28(a0)
 294:	01671613          	slli	a2,a4,0x16
 298:	04012423          	sw	zero,72(sp)
 29c:	00a7d693          	srli	a3,a5,0xa
 2a0:	00c6e6b3          	or	a3,a3,a2
 2a4:	00d12e23          	sw	a3,28(sp)
 2a8:	0117d793          	srli	a5,a5,0x11
 2ac:	01175693          	srli	a3,a4,0x11
 2b0:	00f71713          	slli	a4,a4,0xf
 2b4:	00e7e7b3          	or	a5,a5,a4
 2b8:	04f12223          	sw	a5,68(sp)
 2bc:	02052783          	lw	a5,32(a0)
 2c0:	04d12023          	sw	a3,64(sp)
 2c4:	02800613          	li	a2,40
 2c8:	0077d713          	srli	a4,a5,0x7
 2cc:	02e12023          	sw	a4,32(sp)
 2d0:	02452703          	lw	a4,36(a0)
 2d4:	01979693          	slli	a3,a5,0x19
 2d8:	0097d793          	srli	a5,a5,0x9
 2dc:	00775713          	srli	a4,a4,0x7
 2e0:	00d76733          	or	a4,a4,a3
 2e4:	04f12623          	sw	a5,76(sp)
 2e8:	02e12223          	sw	a4,36(sp)
 2ec:	00000793          	li	a5,0
 2f0:	00f506b3          	add	a3,a0,a5
 2f4:	00f10733          	add	a4,sp,a5
 2f8:	0006a583          	lw	a1,0(a3)
 2fc:	00072703          	lw	a4,0(a4)
 300:	00b74733          	xor	a4,a4,a1
 304:	02810593          	addi	a1,sp,40
 308:	00f585b3          	add	a1,a1,a5
 30c:	0005a583          	lw	a1,0(a1)
 310:	00478793          	addi	a5,a5,4
 314:	00b74733          	xor	a4,a4,a1
 318:	00e6a023          	sw	a4,0(a3)
 31c:	fcc79ae3          	bne	a5,a2,2f0 <pl+0x100>
 320:	05010113          	addi	sp,sp,80
 324:	00008067          	ret

00000328 <permutation>:
 328:	fc010113          	addi	sp,sp,-64
 32c:	02812c23          	sw	s0,56(sp)
 330:	03212823          	sw	s2,48(sp)
 334:	02112e23          	sw	ra,60(sp)
 338:	02912a23          	sw	s1,52(sp)
 33c:	00050413          	mv	s0,a0
 340:	00058913          	mv	s2,a1
 344:	00000793          	li	a5,0
 348:	02800713          	li	a4,40
 34c:	00f40633          	add	a2,s0,a5
 350:	00062603          	lw	a2,0(a2)
 354:	00810693          	addi	a3,sp,8
 358:	00f686b3          	add	a3,a3,a5
 35c:	00c6a023          	sw	a2,0(a3)
 360:	00478793          	addi	a5,a5,4
 364:	fee794e3          	bne	a5,a4,34c <permutation+0x24>
 368:	00000493          	li	s1,0
 36c:	0524c063          	blt	s1,s2,3ac <permutation+0x84>
 370:	00000793          	li	a5,0
 374:	02800713          	li	a4,40
 378:	00810613          	addi	a2,sp,8
 37c:	00f60633          	add	a2,a2,a5
 380:	00062603          	lw	a2,0(a2)
 384:	00f406b3          	add	a3,s0,a5
 388:	00478793          	addi	a5,a5,4
 38c:	00c6a023          	sw	a2,0(a3)
 390:	fee794e3          	bne	a5,a4,378 <permutation+0x50>
 394:	03c12083          	lw	ra,60(sp)
 398:	03812403          	lw	s0,56(sp)
 39c:	03412483          	lw	s1,52(sp)
 3a0:	03012903          	lw	s2,48(sp)
 3a4:	04010113          	addi	sp,sp,64
 3a8:	00008067          	ret
 3ac:	0ff4f613          	zext.b	a2,s1
 3b0:	00090593          	mv	a1,s2
 3b4:	00810513          	addi	a0,sp,8
 3b8:	ccdff0ef          	jal	ra,84 <pc>
 3bc:	00810513          	addi	a0,sp,8
 3c0:	ce5ff0ef          	jal	ra,a4 <ps>
 3c4:	00810513          	addi	a0,sp,8
 3c8:	e29ff0ef          	jal	ra,1f0 <pl>
 3cc:	00148493          	addi	s1,s1,1
 3d0:	f9dff06f          	j	36c <permutation+0x44>

000003d4 <ascon_hash>:
 3d4:	fb010113          	addi	sp,sp,-80
 3d8:	03612823          	sw	s6,48(sp)
 3dc:	00261b13          	slli	s6,a2,0x2
 3e0:	00fb0793          	addi	a5,s6,15
 3e4:	04812423          	sw	s0,72(sp)
 3e8:	04912223          	sw	s1,68(sp)
 3ec:	05212023          	sw	s2,64(sp)
 3f0:	03312e23          	sw	s3,60(sp)
 3f4:	04112623          	sw	ra,76(sp)
 3f8:	03412c23          	sw	s4,56(sp)
 3fc:	03512a23          	sw	s5,52(sp)
 400:	05010413          	addi	s0,sp,80
 404:	7f07f793          	andi	a5,a5,2032
 408:	40f10133          	sub	sp,sp,a5
 40c:	00050913          	mv	s2,a0
 410:	00060493          	mv	s1,a2
 414:	00010993          	mv	s3,sp
 418:	00000793          	li	a5,0
 41c:	0a97c863          	blt	a5,s1,4cc <ascon_hash+0xf8>
 420:	02800613          	li	a2,40
 424:	61000593          	li	a1,1552
 428:	fb840513          	addi	a0,s0,-72
 42c:	0ec000ef          	jal	ra,518 <memcpy>
 430:	00c00593          	li	a1,12
 434:	fb840513          	addi	a0,s0,-72
 438:	0014d493          	srli	s1,s1,0x1
 43c:	eedff0ef          	jal	ra,328 <permutation>
 440:	fff48493          	addi	s1,s1,-1
 444:	00098a13          	mv	s4,s3
 448:	00000a93          	li	s5,0
 44c:	fb842683          	lw	a3,-72(s0)
 450:	fbc42703          	lw	a4,-68(s0)
 454:	089aca63          	blt	s5,s1,4e8 <ascon_hash+0x114>
 458:	016989b3          	add	s3,s3,s6
 45c:	ff89a783          	lw	a5,-8(s3)
 460:	00090493          	mv	s1,s2
 464:	02090913          	addi	s2,s2,32
 468:	00d7c7b3          	xor	a5,a5,a3
 46c:	faf42c23          	sw	a5,-72(s0)
 470:	ffc9a783          	lw	a5,-4(s3)
 474:	00e7c7b3          	xor	a5,a5,a4
 478:	faf42e23          	sw	a5,-68(s0)
 47c:	00c00593          	li	a1,12
 480:	fb840513          	addi	a0,s0,-72
 484:	ea5ff0ef          	jal	ra,328 <permutation>
 488:	fb842783          	lw	a5,-72(s0)
 48c:	00848493          	addi	s1,s1,8
 490:	fef4ac23          	sw	a5,-8(s1)
 494:	fbc42783          	lw	a5,-68(s0)
 498:	fef4ae23          	sw	a5,-4(s1)
 49c:	fe9910e3          	bne	s2,s1,47c <ascon_hash+0xa8>
 4a0:	fb040113          	addi	sp,s0,-80
 4a4:	04c12083          	lw	ra,76(sp)
 4a8:	04812403          	lw	s0,72(sp)
 4ac:	04412483          	lw	s1,68(sp)
 4b0:	04012903          	lw	s2,64(sp)
 4b4:	03c12983          	lw	s3,60(sp)
 4b8:	03812a03          	lw	s4,56(sp)
 4bc:	03412a83          	lw	s5,52(sp)
 4c0:	03012b03          	lw	s6,48(sp)
 4c4:	05010113          	addi	sp,sp,80
 4c8:	00008067          	ret
 4cc:	00279713          	slli	a4,a5,0x2
 4d0:	00e986b3          	add	a3,s3,a4
 4d4:	00e58733          	add	a4,a1,a4
 4d8:	00072703          	lw	a4,0(a4)
 4dc:	00178793          	addi	a5,a5,1
 4e0:	00e6a023          	sw	a4,0(a3)
 4e4:	f39ff06f          	j	41c <ascon_hash+0x48>
 4e8:	000a2783          	lw	a5,0(s4)
 4ec:	00c00593          	li	a1,12
 4f0:	fb840513          	addi	a0,s0,-72
 4f4:	00d7c7b3          	xor	a5,a5,a3
 4f8:	faf42c23          	sw	a5,-72(s0)
 4fc:	004a2783          	lw	a5,4(s4)
 500:	001a8a93          	addi	s5,s5,1
 504:	008a0a13          	addi	s4,s4,8
 508:	00e7c7b3          	xor	a5,a5,a4
 50c:	faf42e23          	sw	a5,-68(s0)
 510:	e19ff0ef          	jal	ra,328 <permutation>
 514:	f39ff06f          	j	44c <ascon_hash+0x78>

00000518 <memcpy>:
 518:	00000793          	li	a5,0
 51c:	00c7c463          	blt	a5,a2,524 <memcpy+0xc>
 520:	00008067          	ret
 524:	00f58733          	add	a4,a1,a5
 528:	00074683          	lbu	a3,0(a4)
 52c:	00f50733          	add	a4,a0,a5
 530:	00178793          	addi	a5,a5,1
 534:	00d70023          	sb	a3,0(a4)
 538:	fe5ff06f          	j	51c <memcpy+0x4>

0000053c <print_chr>:
 53c:	800007b7          	lui	a5,0x80000
 540:	00a7a023          	sw	a0,0(a5) # 80000000 <end+0x7ffff7ec>
 544:	00008067          	ret

00000548 <print_str>:
 548:	80000737          	lui	a4,0x80000
 54c:	00054783          	lbu	a5,0(a0)
 550:	00079463          	bnez	a5,558 <print_str+0x10>
 554:	00008067          	ret
 558:	00150513          	addi	a0,a0,1
 55c:	00f72023          	sw	a5,0(a4) # 80000000 <end+0x7ffff7ec>
 560:	fedff06f          	j	54c <print_str+0x4>

00000564 <print_dec>:
 564:	ff010113          	addi	sp,sp,-16
 568:	00410793          	addi	a5,sp,4
 56c:	00078693          	mv	a3,a5
 570:	00a00713          	li	a4,10
 574:	02051463          	bnez	a0,59c <print_dec+0x38>
 578:	02d78263          	beq	a5,a3,59c <print_dec+0x38>
 57c:	80000637          	lui	a2,0x80000
 580:	fff7c703          	lbu	a4,-1(a5)
 584:	fff78793          	addi	a5,a5,-1
 588:	03070713          	addi	a4,a4,48
 58c:	00e62023          	sw	a4,0(a2) # 80000000 <end+0x7ffff7ec>
 590:	fed798e3          	bne	a5,a3,580 <print_dec+0x1c>
 594:	01010113          	addi	sp,sp,16
 598:	00008067          	ret
 59c:	02e57633          	remu	a2,a0,a4
 5a0:	00178793          	addi	a5,a5,1
 5a4:	02e55533          	divu	a0,a0,a4
 5a8:	fec78fa3          	sb	a2,-1(a5)
 5ac:	fc9ff06f          	j	574 <print_dec+0x10>

000005b0 <print_hex>:
 5b0:	fff58593          	addi	a1,a1,-1
 5b4:	00259593          	slli	a1,a1,0x2
 5b8:	7c000713          	li	a4,1984
 5bc:	800006b7          	lui	a3,0x80000
 5c0:	0005d463          	bgez	a1,5c8 <print_hex+0x18>
 5c4:	00008067          	ret
 5c8:	00b557b3          	srl	a5,a0,a1
 5cc:	00f7f793          	andi	a5,a5,15
 5d0:	00f707b3          	add	a5,a4,a5
 5d4:	0007c783          	lbu	a5,0(a5)
 5d8:	ffc58593          	addi	a1,a1,-4
 5dc:	00f6a023          	sw	a5,0(a3) # 80000000 <end+0x7ffff7ec>
 5e0:	fe1ff06f          	j	5c0 <print_hex+0x10>

000005e4 <round_constants>:
 5e4:	e1f0                	fsw	fa2,68(a1)
 5e6:	c3d2                	sw	s4,196(sp)
 5e8:	a5b4                	fsd	fa3,72(a1)
 5ea:	8796                	mv	a5,t0
 5ec:	6978                	flw	fa4,84(a0)
 5ee:	4b5a                	lw	s6,148(sp)

000005f0 <sbox>:
 5f0:	0b04                	addi	s1,sp,400
 5f2:	141f 151a 0209      	.byte	0x1f, 0x14, 0x1a, 0x15, 0x09, 0x02
 5f8:	1208051b          	.4byte	0x1208051b
 5fc:	031d                	addi	t1,t1,7
 5fe:	1c06                	slli	s8,s8,0x21
 600:	131e                	slli	t1,t1,0x27
 602:	0d000e07          	.4byte	0xd000e07
 606:	1811                	addi	a6,a6,-28
 608:	0c10                	addi	a2,sp,528
 60a:	1901                	addi	s2,s2,-32
 60c:	0a16                	slli	s4,s4,0x5
 60e:	0c00170f          	.4byte	0xc00170f
 612:	0040                	addi	s0,sp,4
 614:	0100                	addi	s0,sp,128
	...
 636:	0000                	unimp
 638:	3a434347          	fmsub.d	ft6,ft6,ft4,ft7,rmm
 63c:	2820                	fld	fs0,80(s0)
 63e:	2029                	jal	648 <sbox+0x58>
 640:	3231                	jal	ffffff4c <end+0xfffff738>
 642:	322e                	fld	ft4,232(sp)
 644:	302e                	fld	ft0,232(sp)
 646:	4100                	lw	s0,0(a0)
 648:	0020                	addi	s0,sp,8
 64a:	0000                	unimp
 64c:	6972                	flw	fs2,28(sp)
 64e:	00766373          	csrrsi	t1,0x7,12
 652:	1601                	addi	a2,a2,-32
 654:	0000                	unimp
 656:	0400                	addi	s0,sp,512
 658:	0510                	addi	a2,sp,640
 65a:	7672                	flw	fa2,60(sp)
 65c:	32693233          	.4byte	0x32693233
 660:	3070                	fld	fa2,224(s0)
 662:	6d5f 7032 0030      	.byte	0x5f, 0x6d, 0x32, 0x70, 0x30, 0x00
 668:	6964                	flw	fs1,84(a0)
 66a:	74736567          	.4byte	0x74736567
 66e:	3120                	fld	fs0,96(a0)
 670:	203a                	fld	ft0,392(sp)
 672:	7830                	flw	fa2,112(s0)
 674:	0000                	unimp
 676:	0000                	unimp
 678:	2029                	jal	682 <sbox+0x92>
 67a:	203d                	jal	6a8 <main+0x24>
 67c:	7830                	flw	fa2,112(s0)
 67e:	0000                	unimp
 680:	002e                	c.slli	zero,0xb
	...

00000684 <main>:
 684:	f8010113          	addi	sp,sp,-128
 688:	06812c23          	sw	s0,120(sp)
 68c:	01800613          	li	a2,24
 690:	76400413          	li	s0,1892
 694:	00810513          	addi	a0,sp,8
 698:	76400593          	li	a1,1892
 69c:	06112e23          	sw	ra,124(sp)
 6a0:	06912a23          	sw	s1,116(sp)
 6a4:	07312623          	sw	s3,108(sp)
 6a8:	07212823          	sw	s2,112(sp)
 6ac:	e6dff0ef          	jal	ra,518 <memcpy>
 6b0:	01840593          	addi	a1,s0,24
 6b4:	02000613          	li	a2,32
 6b8:	02010513          	addi	a0,sp,32
 6bc:	e5dff0ef          	jal	ra,518 <memcpy>
 6c0:	00600613          	li	a2,6
 6c4:	00810593          	addi	a1,sp,8
 6c8:	04010513          	addi	a0,sp,64
 6cc:	d09ff0ef          	jal	ra,3d4 <ascon_hash>
 6d0:	66800513          	li	a0,1640
 6d4:	04010413          	addi	s0,sp,64
 6d8:	e71ff0ef          	jal	ra,548 <print_str>
 6dc:	00040493          	mv	s1,s0
 6e0:	0004a503          	lw	a0,0(s1)
 6e4:	00800593          	li	a1,8
 6e8:	00448493          	addi	s1,s1,4
 6ec:	ec5ff0ef          	jal	ra,5b0 <print_hex>
 6f0:	06010793          	addi	a5,sp,96
 6f4:	fef496e3          	bne	s1,a5,6e0 <main+0x5c>
 6f8:	67800513          	li	a0,1656
 6fc:	e4dff0ef          	jal	ra,548 <print_str>
 700:	68000513          	li	a0,1664
 704:	e45ff0ef          	jal	ra,548 <print_str>
 708:	04010513          	addi	a0,sp,64
 70c:	00800613          	li	a2,8
 710:	02010593          	addi	a1,sp,32
 714:	cc1ff0ef          	jal	ra,3d4 <ascon_hash>
 718:	66800513          	li	a0,1640
 71c:	e2dff0ef          	jal	ra,548 <print_str>
 720:	00042503          	lw	a0,0(s0)
 724:	00800593          	li	a1,8
 728:	00440413          	addi	s0,s0,4
 72c:	e85ff0ef          	jal	ra,5b0 <print_hex>
 730:	06010793          	addi	a5,sp,96
 734:	fef416e3          	bne	s0,a5,720 <main+0x9c>
 738:	67800513          	li	a0,1656
 73c:	e0dff0ef          	jal	ra,548 <print_str>
 740:	68000513          	li	a0,1664
 744:	e05ff0ef          	jal	ra,548 <print_str>
 748:	07c12083          	lw	ra,124(sp)
 74c:	07812403          	lw	s0,120(sp)
 750:	07412483          	lw	s1,116(sp)
 754:	07012903          	lw	s2,112(sp)
 758:	06c12983          	lw	s3,108(sp)
 75c:	08010113          	addi	sp,sp,128
 760:	00008067          	ret
 764:	00010203          	lb	tp,0(sp)
 768:	04050607          	.4byte	0x4050607
 76c:	08090a0b          	.4byte	0x8090a0b
 770:	0c0d0e0f          	.4byte	0xc0d0e0f
 774:	10111213          	.4byte	0x10111213
 778:	0000                	unimp
 77a:	8000                	.2byte	0x8000
 77c:	00010203          	lb	tp,0(sp)
 780:	04050607          	.4byte	0x4050607
 784:	08090a0b          	.4byte	0x8090a0b
 788:	0c0d0e0f          	.4byte	0xc0d0e0f
 78c:	10111213          	.4byte	0x10111213
 790:	14151617          	auipc	a2,0x14151
 794:	18191a1b          	.4byte	0x18191a1b
 798:	8000                	.2byte	0x8000
 79a:	1c1d                	addi	s8,s8,-25
 79c:	2041                	jal	81c <end+0x8>
 79e:	0000                	unimp
 7a0:	7200                	flw	fs0,32(a2)
 7a2:	7369                	lui	t1,0xffffa
 7a4:	01007663          	bgeu	zero,a6,7b0 <main+0x12c>
 7a8:	0016                	c.slli	zero,0x5
 7aa:	0000                	unimp
 7ac:	1004                	addi	s1,sp,32
 7ae:	7205                	lui	tp,0xfffe1
 7b0:	3376                	fld	ft6,376(sp)
 7b2:	6932                	flw	fs2,12(sp)
 7b4:	7032                	flw	ft0,44(sp)
 7b6:	5f30                	lw	a2,120(a4)
 7b8:	326d                	jal	162 <ps+0xbe>
 7ba:	3070                	fld	fa2,224(s0)
 7bc:	0000                	unimp
 7be:	0000                	unimp
 7c0:	3130                	fld	fa2,96(a0)
 7c2:	3332                	fld	ft6,296(sp)
 7c4:	3534                	fld	fa3,104(a0)
 7c6:	3736                	fld	fa4,360(sp)
 7c8:	3938                	fld	fa4,112(a0)
 7ca:	4241                	li	tp,16
 7cc:	46454443          	.4byte	0x46454443
 7d0:	4100                	lw	s0,0(a0)
 7d2:	0020                	addi	s0,sp,8
 7d4:	0000                	unimp
 7d6:	6972                	flw	fs2,28(sp)
 7d8:	00766373          	csrrsi	t1,0x7,12
 7dc:	1601                	addi	a2,a2,-32 # 14151770 <end+0x14150f5c>
 7de:	0000                	unimp
 7e0:	0400                	addi	s0,sp,512
 7e2:	0510                	addi	a2,sp,640
 7e4:	7672                	flw	fa2,60(sp)
 7e6:	32693233          	.4byte	0x32693233
 7ea:	3070                	fld	fa2,224(s0)
 7ec:	6d5f 7032 0030      	.byte	0x5f, 0x6d, 0x32, 0x70, 0x30, 0x00
 7f2:	1e41                	addi	t3,t3,-16
 7f4:	0000                	unimp
 7f6:	7200                	flw	fs0,32(a2)
 7f8:	7369                	lui	t1,0xffffa
 7fa:	01007663          	bgeu	zero,a6,806 <main+0x182>
 7fe:	0014                	.2byte	0x14
 800:	0000                	unimp
 802:	7205                	lui	tp,0xfffe1
 804:	3376                	fld	ft6,376(sp)
 806:	6932                	flw	fs2,12(sp)
 808:	7032                	flw	ft0,44(sp)
 80a:	5f30                	lw	a2,120(a4)
 80c:	326d                	jal	1b6 <ps+0x112>
 80e:	3070                	fld	fa2,224(s0)
 810:	0000                	unimp
	...
